; Listing generated by Microsoft (R) Optimizing Compiler Version 19.44.35215.0 

include listing.inc

INCLUDELIB LIBCMT
INCLUDELIB OLDNAMES

PUBLIC	_Avx2WmemEnabledWeakValue
;	COMDAT _Avx2WmemEnabledWeakValue
_BSS	SEGMENT
_Avx2WmemEnabledWeakValue DD 01H DUP (?)
_BSS	ENDS
CONST	SEGMENT
?PIECE_VALUES_MG@@3V?$array@H$06@std@@B DD 00H		; PIECE_VALUES_MG
	DD	064H
	DD	0140H
	DD	014aH
	DD	01f4H
	DD	0384H
	DD	04e20H
	ORG $+4
?BIT_MASK@@3QB_KB DQ 0000000000000001H			; BIT_MASK
	DQ	0000000000000002H
	DQ	0000000000000004H
	DQ	0000000000000008H
	DQ	0000000000000010H
	DQ	0000000000000020H
	DQ	0000000000000040H
	DQ	0000000000000080H
	DQ	0000000000000100H
	DQ	0000000000000200H
	DQ	0000000000000400H
	DQ	0000000000000800H
	DQ	0000000000001000H
	DQ	0000000000002000H
	DQ	0000000000004000H
	DQ	0000000000008000H
	DQ	0000000000010000H
	DQ	0000000000020000H
	DQ	0000000000040000H
	DQ	0000000000080000H
	DQ	0000000000100000H
	DQ	0000000000200000H
	DQ	0000000000400000H
	DQ	0000000000800000H
	DQ	0000000001000000H
	DQ	0000000002000000H
	DQ	0000000004000000H
	DQ	0000000008000000H
	DQ	0000000010000000H
	DQ	0000000020000000H
	DQ	0000000040000000H
	DQ	0000000080000000H
	DQ	0000000100000000H
	DQ	0000000200000000H
	DQ	0000000400000000H
	DQ	0000000800000000H
	DQ	0000001000000000H
	DQ	0000002000000000H
	DQ	0000004000000000H
	DQ	0000008000000000H
	DQ	0000010000000000H
	DQ	0000020000000000H
	DQ	0000040000000000H
	DQ	0000080000000000H
	DQ	0000100000000000H
	DQ	0000200000000000H
	DQ	0000400000000000H
	DQ	0000800000000000H
	DQ	0001000000000000H
	DQ	0002000000000000H
	DQ	0004000000000000H
	DQ	0008000000000000H
	DQ	0010000000000000H
	DQ	0020000000000000H
	DQ	0040000000000000H
	DQ	0080000000000000H
	DQ	0100000000000000H
	DQ	0200000000000000H
	DQ	0400000000000000H
	DQ	0800000000000000H
	DQ	1000000000000000H
	DQ	2000000000000000H
	DQ	4000000000000000H
	DQ	8000000000000000H
?SQUARE_FROM_FILE_RANK@@3QAY07$$CBHA DD 00H		; SQUARE_FROM_FILE_RANK
	DD	01H
	DD	02H
	DD	03H
	DD	04H
	DD	05H
	DD	06H
	DD	07H
	DD	08H
	DD	09H
	DD	0aH
	DD	0bH
	DD	0cH
	DD	0dH
	DD	0eH
	DD	0fH
	DD	010H
	DD	011H
	DD	012H
	DD	013H
	DD	014H
	DD	015H
	DD	016H
	DD	017H
	DD	018H
	DD	019H
	DD	01aH
	DD	01bH
	DD	01cH
	DD	01dH
	DD	01eH
	DD	01fH
	DD	020H
	DD	021H
	DD	022H
	DD	023H
	DD	024H
	DD	025H
	DD	026H
	DD	027H
	DD	028H
	DD	029H
	DD	02aH
	DD	02bH
	DD	02cH
	DD	02dH
	DD	02eH
	DD	02fH
	DD	030H
	DD	031H
	DD	032H
	DD	033H
	DD	034H
	DD	035H
	DD	036H
	DD	037H
	DD	038H
	DD	039H
	DD	03aH
	DD	03bH
	DD	03cH
	DD	03dH
	DD	03eH
	DD	03fH
?FILE_OF_SQUARE@@3QBHB DD 00H				; FILE_OF_SQUARE
	DD	01H
	DD	02H
	DD	03H
	DD	04H
	DD	05H
	DD	06H
	DD	07H
	DD	00H
	DD	01H
	DD	02H
	DD	03H
	DD	04H
	DD	05H
	DD	06H
	DD	07H
	DD	00H
	DD	01H
	DD	02H
	DD	03H
	DD	04H
	DD	05H
	DD	06H
	DD	07H
	DD	00H
	DD	01H
	DD	02H
	DD	03H
	DD	04H
	DD	05H
	DD	06H
	DD	07H
	DD	00H
	DD	01H
	DD	02H
	DD	03H
	DD	04H
	DD	05H
	DD	06H
	DD	07H
	DD	00H
	DD	01H
	DD	02H
	DD	03H
	DD	04H
	DD	05H
	DD	06H
	DD	07H
	DD	00H
	DD	01H
	DD	02H
	DD	03H
	DD	04H
	DD	05H
	DD	06H
	DD	07H
	DD	00H
	DD	01H
	DD	02H
	DD	03H
	DD	04H
	DD	05H
	DD	06H
	DD	07H
?RANK_OF_SQUARE@@3QBHB DD 00H				; RANK_OF_SQUARE
	DD	00H
	DD	00H
	DD	00H
	DD	00H
	DD	00H
	DD	00H
	DD	00H
	DD	01H
	DD	01H
	DD	01H
	DD	01H
	DD	01H
	DD	01H
	DD	01H
	DD	01H
	DD	02H
	DD	02H
	DD	02H
	DD	02H
	DD	02H
	DD	02H
	DD	02H
	DD	02H
	DD	03H
	DD	03H
	DD	03H
	DD	03H
	DD	03H
	DD	03H
	DD	03H
	DD	03H
	DD	04H
	DD	04H
	DD	04H
	DD	04H
	DD	04H
	DD	04H
	DD	04H
	DD	04H
	DD	05H
	DD	05H
	DD	05H
	DD	05H
	DD	05H
	DD	05H
	DD	05H
	DD	05H
	DD	06H
	DD	06H
	DD	06H
	DD	06H
	DD	06H
	DD	06H
	DD	06H
	DD	06H
	DD	07H
	DD	07H
	DD	07H
	DD	07H
	DD	07H
	DD	07H
	DD	07H
	DD	07H
CONST	ENDS
PUBLIC	??2@YAPEAX_KPEAX@Z				; operator new
PUBLIC	?fpclassify@@YAHN@Z				; fpclassify
PUBLIC	?fpclassify@@YAHO@Z				; fpclassify
PUBLIC	fabsl
PUBLIC	frexpl
PUBLIC	__local_stdio_printf_options
PUBLIC	_vsprintf_s_l
PUBLIC	sprintf_s
PUBLIC	??0exception@std@@QEAA@QEBD@Z			; std::exception::exception
PUBLIC	??0exception@std@@QEAA@QEBDH@Z			; std::exception::exception
PUBLIC	??0exception@std@@QEAA@AEBV01@@Z		; std::exception::exception
PUBLIC	??1exception@std@@UEAA@XZ			; std::exception::~exception
PUBLIC	?what@exception@std@@UEBAPEBDXZ			; std::exception::what
PUBLIC	??_Gexception@std@@UEAAPEAXI@Z			; std::exception::`scalar deleting destructor'
PUBLIC	??0bad_alloc@std@@AEAA@QEBD@Z			; std::bad_alloc::bad_alloc
PUBLIC	??1bad_alloc@std@@UEAA@XZ			; std::bad_alloc::~bad_alloc
PUBLIC	??0bad_alloc@std@@QEAA@AEBV01@@Z		; std::bad_alloc::bad_alloc
PUBLIC	??_Gbad_alloc@std@@UEAAPEAXI@Z			; std::bad_alloc::`scalar deleting destructor'
PUBLIC	??0bad_array_new_length@std@@QEAA@XZ		; std::bad_array_new_length::bad_array_new_length
PUBLIC	??1bad_array_new_length@std@@UEAA@XZ		; std::bad_array_new_length::~bad_array_new_length
PUBLIC	??0bad_array_new_length@std@@QEAA@AEBV01@@Z	; std::bad_array_new_length::bad_array_new_length
PUBLIC	??_Gbad_array_new_length@std@@UEAAPEAXI@Z	; std::bad_array_new_length::`scalar deleting destructor'
PUBLIC	?copy@?$_Char_traits@DH@std@@SAPEADQEADQEBD_K@Z	; std::_Char_traits<char,int>::copy
PUBLIC	?move@?$_Char_traits@DH@std@@SAPEADQEADQEBD_K@Z	; std::_Char_traits<char,int>::move
PUBLIC	?length@?$_Narrow_char_traits@DH@std@@SA_KQEBD@Z ; std::_Narrow_char_traits<char,int>::length
PUBLIC	?assign@?$_Narrow_char_traits@DH@std@@SAPEADQEAD_KD@Z ; std::_Narrow_char_traits<char,int>::assign
PUBLIC	?assign@?$_Narrow_char_traits@DH@std@@SAXAEADAEBD@Z ; std::_Narrow_char_traits<char,int>::assign
PUBLIC	?to_int_type@?$_Narrow_char_traits@DH@std@@SAHD@Z ; std::_Narrow_char_traits<char,int>::to_int_type
PUBLIC	?eq_int_type@?$_Narrow_char_traits@DH@std@@SA_NHH@Z ; std::_Narrow_char_traits<char,int>::eq_int_type
PUBLIC	?eof@?$_Narrow_char_traits@DH@std@@SAHXZ	; std::_Narrow_char_traits<char,int>::eof
PUBLIC	?_Throw_bad_array_new_length@std@@YAXXZ		; std::_Throw_bad_array_new_length
PUBLIC	?_Allocate@_Default_allocate_traits@std@@SAPEAX_K@Z ; std::_Default_allocate_traits::_Allocate
PUBLIC	?_Adjust_manually_vector_aligned@std@@YAXAEAPEAXAEA_K@Z ; std::_Adjust_manually_vector_aligned
PUBLIC	?_Orphan_all@_Container_base0@std@@QEAAXXZ	; std::_Container_base0::_Orphan_all
PUBLIC	?_Swap_proxy_and_iterators@_Container_base0@std@@QEAAXAEAU12@@Z ; std::_Container_base0::_Swap_proxy_and_iterators
PUBLIC	?_Alloc_proxy@_Container_base0@std@@QEAAXAEBU_Fake_allocator@2@@Z ; std::_Container_base0::_Alloc_proxy
PUBLIC	??0_Fake_proxy_ptr_impl@std@@QEAA@AEBU_Fake_allocator@1@AEBU_Container_base0@1@@Z ; std::_Fake_proxy_ptr_impl::_Fake_proxy_ptr_impl
PUBLIC	?_Release@_Fake_proxy_ptr_impl@std@@QEAAXXZ	; std::_Fake_proxy_ptr_impl::_Release
PUBLIC	?_Xlen_string@std@@YAXXZ			; std::_Xlen_string
PUBLIC	??0?$allocator@D@std@@QEAA@XZ			; std::allocator<char>::allocator<char>
PUBLIC	?deallocate@?$allocator@D@std@@QEAAXQEAD_K@Z	; std::allocator<char>::deallocate
PUBLIC	?allocate@?$allocator@D@std@@QEAAPEAD_K@Z	; std::allocator<char>::allocate
PUBLIC	?max_size@?$_Default_allocator_traits@V?$allocator@D@std@@@std@@SA_KAEBV?$allocator@D@2@@Z ; std::_Default_allocator_traits<std::allocator<char> >::max_size
PUBLIC	?select_on_container_copy_construction@?$_Default_allocator_traits@V?$allocator@D@std@@@std@@SA?AV?$allocator@D@2@AEBV32@@Z ; std::_Default_allocator_traits<std::allocator<char> >::select_on_container_copy_construction
PUBLIC	??0?$_String_val@U?$_Simple_types@D@std@@@std@@QEAA@XZ ; std::_String_val<std::_Simple_types<char> >::_String_val<std::_Simple_types<char> >
PUBLIC	?_Myptr@?$_String_val@U?$_Simple_types@D@std@@@std@@QEAAPEADXZ ; std::_String_val<std::_Simple_types<char> >::_Myptr
PUBLIC	?_Myptr@?$_String_val@U?$_Simple_types@D@std@@@std@@QEBAPEBDXZ ; std::_String_val<std::_Simple_types<char> >::_Myptr
PUBLIC	?_Large_mode_engaged@?$_String_val@U?$_Simple_types@D@std@@@std@@QEBA_NXZ ; std::_String_val<std::_Simple_types<char> >::_Large_mode_engaged
PUBLIC	?_Activate_SSO_buffer@?$_String_val@U?$_Simple_types@D@std@@@std@@QEAAXXZ ; std::_String_val<std::_Simple_types<char> >::_Activate_SSO_buffer
PUBLIC	?_Check_offset@?$_String_val@U?$_Simple_types@D@std@@@std@@QEBAX_K@Z ; std::_String_val<std::_Simple_types<char> >::_Check_offset
PUBLIC	?_Xran@?$_String_val@U?$_Simple_types@D@std@@@std@@SAXXZ ; std::_String_val<std::_Simple_types<char> >::_Xran
PUBLIC	??0_Bxty@?$_String_val@U?$_Simple_types@D@std@@@std@@QEAA@XZ ; std::_String_val<std::_Simple_types<char> >::_Bxty::_Bxty
PUBLIC	??1_Bxty@?$_String_val@U?$_Simple_types@D@std@@@std@@QEAA@XZ ; std::_String_val<std::_Simple_types<char> >::_Bxty::~_Bxty
PUBLIC	?_Switch_to_buf@_Bxty@?$_String_val@U?$_Simple_types@D@std@@@std@@QEAAXXZ ; std::_String_val<std::_Simple_types<char> >::_Bxty::_Switch_to_buf
PUBLIC	??1?$_String_val@U?$_Simple_types@D@std@@@std@@QEAA@XZ ; std::_String_val<std::_Simple_types<char> >::~_String_val<std::_Simple_types<char> >
PUBLIC	??0?$basic_string@DU?$char_traits@D@std@@V?$allocator@D@2@@std@@QEAA@XZ ; std::basic_string<char,std::char_traits<char>,std::allocator<char> >::basic_string<char,std::char_traits<char>,std::allocator<char> >
PUBLIC	??0?$basic_string@DU?$char_traits@D@std@@V?$allocator@D@2@@std@@QEAA@AEBV01@@Z ; std::basic_string<char,std::char_traits<char>,std::allocator<char> >::basic_string<char,std::char_traits<char>,std::allocator<char> >
PUBLIC	??0?$basic_string@DU?$char_traits@D@std@@V?$allocator@D@2@@std@@QEAA@QEBD_K@Z ; std::basic_string<char,std::char_traits<char>,std::allocator<char> >::basic_string<char,std::char_traits<char>,std::allocator<char> >
PUBLIC	??0?$basic_string@DU?$char_traits@D@std@@V?$allocator@D@2@@std@@QEAA@QEBD@Z ; std::basic_string<char,std::char_traits<char>,std::allocator<char> >::basic_string<char,std::char_traits<char>,std::allocator<char> >
PUBLIC	??0?$basic_string@DU?$char_traits@D@std@@V?$allocator@D@2@@std@@QEAA@_KD@Z ; std::basic_string<char,std::char_traits<char>,std::allocator<char> >::basic_string<char,std::char_traits<char>,std::allocator<char> >
PUBLIC	?_Deallocate_for_capacity@?$basic_string@DU?$char_traits@D@std@@V?$allocator@D@2@@std@@CAXAEAV?$allocator@D@2@QEAD_K@Z ; std::basic_string<char,std::char_traits<char>,std::allocator<char> >::_Deallocate_for_capacity
PUBLIC	?_Construct_empty@?$basic_string@DU?$char_traits@D@std@@V?$allocator@D@2@@std@@AEAAXXZ ; std::basic_string<char,std::char_traits<char>,std::allocator<char> >::_Construct_empty
PUBLIC	??0?$basic_string@DU?$char_traits@D@std@@V?$allocator@D@2@@std@@QEAA@$$QEAV01@@Z ; std::basic_string<char,std::char_traits<char>,std::allocator<char> >::basic_string<char,std::char_traits<char>,std::allocator<char> >
PUBLIC	??4?$basic_string@DU?$char_traits@D@std@@V?$allocator@D@2@@std@@QEAAAEAV01@$$QEAV01@@Z ; std::basic_string<char,std::char_traits<char>,std::allocator<char> >::operator=
PUBLIC	?assign@?$basic_string@DU?$char_traits@D@std@@V?$allocator@D@2@@std@@QEAAAEAV12@$$QEAV12@@Z ; std::basic_string<char,std::char_traits<char>,std::allocator<char> >::assign
PUBLIC	?_Take_contents@?$basic_string@DU?$char_traits@D@std@@V?$allocator@D@2@@std@@AEAAXAEAV12@@Z ; std::basic_string<char,std::char_traits<char>,std::allocator<char> >::_Take_contents
PUBLIC	??1?$basic_string@DU?$char_traits@D@std@@V?$allocator@D@2@@std@@QEAA@XZ ; std::basic_string<char,std::char_traits<char>,std::allocator<char> >::~basic_string<char,std::char_traits<char>,std::allocator<char> >
PUBLIC	?append@?$basic_string@DU?$char_traits@D@std@@V?$allocator@D@2@@std@@QEAAAEAV12@AEBV12@@Z ; std::basic_string<char,std::char_traits<char>,std::allocator<char> >::append
PUBLIC	?append@?$basic_string@DU?$char_traits@D@std@@V?$allocator@D@2@@std@@QEAAAEAV12@QEBD_K@Z ; std::basic_string<char,std::char_traits<char>,std::allocator<char> >::append
PUBLIC	?append@?$basic_string@DU?$char_traits@D@std@@V?$allocator@D@2@@std@@QEAAAEAV12@QEBD@Z ; std::basic_string<char,std::char_traits<char>,std::allocator<char> >::append
PUBLIC	?append@?$basic_string@DU?$char_traits@D@std@@V?$allocator@D@2@@std@@QEAAAEAV12@_KD@Z ; std::basic_string<char,std::char_traits<char>,std::allocator<char> >::append
PUBLIC	?insert@?$basic_string@DU?$char_traits@D@std@@V?$allocator@D@2@@std@@QEAAAEAV12@_K0D@Z ; std::basic_string<char,std::char_traits<char>,std::allocator<char> >::insert
PUBLIC	??A?$basic_string@DU?$char_traits@D@std@@V?$allocator@D@2@@std@@QEAAAEAD_K@Z ; std::basic_string<char,std::char_traits<char>,std::allocator<char> >::operator[]
PUBLIC	??A?$basic_string@DU?$char_traits@D@std@@V?$allocator@D@2@@std@@QEBAAEBD_K@Z ; std::basic_string<char,std::char_traits<char>,std::allocator<char> >::operator[]
PUBLIC	?c_str@?$basic_string@DU?$char_traits@D@std@@V?$allocator@D@2@@std@@QEBAPEBDXZ ; std::basic_string<char,std::char_traits<char>,std::allocator<char> >::c_str
PUBLIC	?size@?$basic_string@DU?$char_traits@D@std@@V?$allocator@D@2@@std@@QEBA_KXZ ; std::basic_string<char,std::char_traits<char>,std::allocator<char> >::size
PUBLIC	?max_size@?$basic_string@DU?$char_traits@D@std@@V?$allocator@D@2@@std@@QEBA_KXZ ; std::basic_string<char,std::char_traits<char>,std::allocator<char> >::max_size
PUBLIC	?resize@?$basic_string@DU?$char_traits@D@std@@V?$allocator@D@2@@std@@QEAAX_KD@Z ; std::basic_string<char,std::char_traits<char>,std::allocator<char> >::resize
PUBLIC	?empty@?$basic_string@DU?$char_traits@D@std@@V?$allocator@D@2@@std@@QEBA_NXZ ; std::basic_string<char,std::char_traits<char>,std::allocator<char> >::empty
PUBLIC	?_Calculate_growth@?$basic_string@DU?$char_traits@D@std@@V?$allocator@D@2@@std@@CA_K_K00@Z ; std::basic_string<char,std::char_traits<char>,std::allocator<char> >::_Calculate_growth
PUBLIC	?_Calculate_growth@?$basic_string@DU?$char_traits@D@std@@V?$allocator@D@2@@std@@AEBA_K_K@Z ; std::basic_string<char,std::char_traits<char>,std::allocator<char> >::_Calculate_growth
PUBLIC	?_Eos@?$basic_string@DU?$char_traits@D@std@@V?$allocator@D@2@@std@@AEAAX_K@Z ; std::basic_string<char,std::char_traits<char>,std::allocator<char> >::_Eos
PUBLIC	?_Tidy_deallocate@?$basic_string@DU?$char_traits@D@std@@V?$allocator@D@2@@std@@AEAAXXZ ; std::basic_string<char,std::char_traits<char>,std::allocator<char> >::_Tidy_deallocate
PUBLIC	?_Swap_proxy_and_iterators@?$basic_string@DU?$char_traits@D@std@@V?$allocator@D@2@@std@@AEAAXAEAV12@@Z ; std::basic_string<char,std::char_traits<char>,std::allocator<char> >::_Swap_proxy_and_iterators
PUBLIC	?_Getal@?$basic_string@DU?$char_traits@D@std@@V?$allocator@D@2@@std@@AEAAAEAV?$allocator@D@2@XZ ; std::basic_string<char,std::char_traits<char>,std::allocator<char> >::_Getal
PUBLIC	?_Getal@?$basic_string@DU?$char_traits@D@std@@V?$allocator@D@2@@std@@AEBAAEBV?$allocator@D@2@XZ ; std::basic_string<char,std::char_traits<char>,std::allocator<char> >::_Getal
PUBLIC	?_Get_first@?$_Compressed_pair@V?$allocator@D@std@@V?$_String_val@U?$_Simple_types@D@std@@@2@$00@std@@QEAAAEAV?$allocator@D@2@XZ ; std::_Compressed_pair<std::allocator<char>,std::_String_val<std::_Simple_types<char> >,1>::_Get_first
PUBLIC	?_Get_first@?$_Compressed_pair@V?$allocator@D@std@@V?$_String_val@U?$_Simple_types@D@std@@@2@$00@std@@QEBAAEBV?$allocator@D@2@XZ ; std::_Compressed_pair<std::allocator<char>,std::_String_val<std::_Simple_types<char> >,1>::_Get_first
PUBLIC	??1?$_Compressed_pair@V?$allocator@D@std@@V?$_String_val@U?$_Simple_types@D@std@@@2@$00@std@@QEAA@XZ ; std::_Compressed_pair<std::allocator<char>,std::_String_val<std::_Simple_types<char> >,1>::~_Compressed_pair<std::allocator<char>,std::_String_val<std::_Simple_types<char> >,1>
PUBLIC	??0runtime_error@std@@QEAA@AEBV?$basic_string@DU?$char_traits@D@std@@V?$allocator@D@2@@1@@Z ; std::runtime_error::runtime_error
PUBLIC	??1runtime_error@std@@UEAA@XZ			; std::runtime_error::~runtime_error
PUBLIC	??0runtime_error@std@@QEAA@AEBV01@@Z		; std::runtime_error::runtime_error
PUBLIC	??_Gruntime_error@std@@UEAAPEAXI@Z		; std::runtime_error::`scalar deleting destructor'
PUBLIC	?iostream_category@std@@YAAEBVerror_category@1@XZ ; std::iostream_category
PUBLIC	??1error_category@std@@UEAA@XZ			; std::error_category::~error_category
PUBLIC	?default_error_condition@error_category@std@@UEBA?AVerror_condition@2@H@Z ; std::error_category::default_error_condition
PUBLIC	?equivalent@error_category@std@@UEBA_NHAEBVerror_condition@2@@Z ; std::error_category::equivalent
PUBLIC	?equivalent@error_category@std@@UEBA_NAEBVerror_code@2@H@Z ; std::error_category::equivalent
PUBLIC	??8error_category@std@@QEBA_NAEBV01@@Z		; std::error_category::operator==
PUBLIC	??$_Bit_cast@_KT_Addr_storage@error_category@std@@$0A@@std@@YA_KAEBT_Addr_storage@error_category@0@@Z ; std::_Bit_cast<unsigned __int64,std::error_category::_Addr_storage,0>
PUBLIC	??0error_code@std@@QEAA@HAEBVerror_category@1@@Z ; std::error_code::error_code
PUBLIC	?value@error_code@std@@QEBAHXZ			; std::error_code::value
PUBLIC	?category@error_code@std@@QEBAAEBVerror_category@2@XZ ; std::error_code::category
PUBLIC	?message@error_code@std@@QEBA?AV?$basic_string@DU?$char_traits@D@std@@V?$allocator@D@2@@2@XZ ; std::error_code::message
PUBLIC	??0error_condition@std@@QEAA@HAEBVerror_category@1@@Z ; std::error_condition::error_condition
PUBLIC	?value@error_condition@std@@QEBAHXZ		; std::error_condition::value
PUBLIC	?category@error_condition@std@@QEBAAEBVerror_category@2@XZ ; std::error_condition::category
PUBLIC	??8std@@YA_NAEBVerror_condition@0@0@Z		; std::operator==
PUBLIC	?make_error_code@std@@YA?AVerror_code@1@W4io_errc@1@@Z ; std::make_error_code
PUBLIC	?_Makestr@_System_error@std@@CA?AV?$basic_string@DU?$char_traits@D@std@@V?$allocator@D@2@@2@Verror_code@2@V32@@Z ; std::_System_error::_Makestr
PUBLIC	??0_System_error@std@@IEAA@Verror_code@1@AEBV?$basic_string@DU?$char_traits@D@std@@V?$allocator@D@2@@1@@Z ; std::_System_error::_System_error
PUBLIC	??1_System_error@std@@UEAA@XZ			; std::_System_error::~_System_error
PUBLIC	??0_System_error@std@@QEAA@AEBV01@@Z		; std::_System_error::_System_error
PUBLIC	??_G_System_error@std@@UEAAPEAXI@Z		; std::_System_error::`scalar deleting destructor'
PUBLIC	??0system_error@std@@QEAA@Verror_code@1@PEBD@Z	; std::system_error::system_error
PUBLIC	??1system_error@std@@UEAA@XZ			; std::system_error::~system_error
PUBLIC	??0system_error@std@@QEAA@AEBV01@@Z		; std::system_error::system_error
PUBLIC	??_Gsystem_error@std@@UEAAPEAXI@Z		; std::system_error::`scalar deleting destructor'
PUBLIC	?name@_Iostream_error_category2@std@@UEBAPEBDXZ	; std::_Iostream_error_category2::name
PUBLIC	?message@_Iostream_error_category2@std@@UEBA?AV?$basic_string@DU?$char_traits@D@std@@V?$allocator@D@2@@2@H@Z ; std::_Iostream_error_category2::message
PUBLIC	??1_Iostream_error_category2@std@@UEAA@XZ	; std::_Iostream_error_category2::~_Iostream_error_category2
PUBLIC	??_G_Iostream_error_category2@std@@UEAAPEAXI@Z	; std::_Iostream_error_category2::`scalar deleting destructor'
PUBLIC	??$_Immortalize_memcpy_image@V_Iostream_error_category2@std@@@std@@YAAEBV_Iostream_error_category2@0@XZ ; std::_Immortalize_memcpy_image<std::_Iostream_error_category2>
PUBLIC	??0bad_cast@std@@QEAA@XZ			; std::bad_cast::bad_cast
PUBLIC	??1bad_cast@std@@UEAA@XZ			; std::bad_cast::~bad_cast
PUBLIC	??0bad_cast@std@@QEAA@AEBV01@@Z			; std::bad_cast::bad_cast
PUBLIC	??_Gbad_cast@std@@UEAAPEAXI@Z			; std::bad_cast::`scalar deleting destructor'
PUBLIC	?_Throw_bad_cast@std@@YAXXZ			; std::_Throw_bad_cast
PUBLIC	??1_Facet_base@std@@UEAA@XZ			; std::_Facet_base::~_Facet_base
PUBLIC	??0_Facet_base@std@@QEAA@XZ			; std::_Facet_base::_Facet_base
PUBLIC	??_G_Facet_base@std@@UEAAPEAXI@Z		; std::_Facet_base::`scalar deleting destructor'
PUBLIC	??0_Locinfo@std@@QEAA@PEBD@Z			; std::_Locinfo::_Locinfo
PUBLIC	??1_Locinfo@std@@QEAA@XZ			; std::_Locinfo::~_Locinfo
PUBLIC	?_Getctype@_Locinfo@std@@QEBA?AU_Ctypevec@@XZ	; std::_Locinfo::_Getctype
PUBLIC	?_Getcvt@_Locinfo@std@@QEBA?AU_Cvtvec@@XZ	; std::_Locinfo::_Getcvt
PUBLIC	?_Getlconv@_Locinfo@std@@QEBAPEBUlconv@@XZ	; std::_Locinfo::_Getlconv
PUBLIC	?_Getfalse@_Locinfo@std@@QEBAPEBDXZ		; std::_Locinfo::_Getfalse
PUBLIC	?_Gettrue@_Locinfo@std@@QEBAPEBDXZ		; std::_Locinfo::_Gettrue
PUBLIC	??0?$_Yarn@D@std@@QEAA@XZ			; std::_Yarn<char>::_Yarn<char>
PUBLIC	??1?$_Yarn@D@std@@QEAA@XZ			; std::_Yarn<char>::~_Yarn<char>
PUBLIC	?c_str@?$_Yarn@D@std@@QEBAPEBDXZ		; std::_Yarn<char>::c_str
PUBLIC	?_Tidy@?$_Yarn@D@std@@AEAAXXZ			; std::_Yarn<char>::_Tidy
PUBLIC	??0?$_Yarn@_W@std@@QEAA@XZ			; std::_Yarn<wchar_t>::_Yarn<wchar_t>
PUBLIC	??1?$_Yarn@_W@std@@QEAA@XZ			; std::_Yarn<wchar_t>::~_Yarn<wchar_t>
PUBLIC	?_Tidy@?$_Yarn@_W@std@@AEAAXXZ			; std::_Yarn<wchar_t>::_Tidy
PUBLIC	?_Incref@facet@locale@std@@UEAAXXZ		; std::locale::facet::_Incref
PUBLIC	?_Decref@facet@locale@std@@UEAAPEAV_Facet_base@3@XZ ; std::locale::facet::_Decref
PUBLIC	??0facet@locale@std@@IEAA@_K@Z			; std::locale::facet::facet
PUBLIC	??1facet@locale@std@@MEAA@XZ			; std::locale::facet::~facet
PUBLIC	??_Gfacet@locale@std@@MEAAPEAXI@Z		; std::locale::facet::`scalar deleting destructor'
PUBLIC	??0locale@std@@QEAA@AEBV01@@Z			; std::locale::locale
PUBLIC	??1locale@std@@QEAA@XZ				; std::locale::~locale
PUBLIC	?_C_str@locale@std@@QEBAPEBDXZ			; std::locale::_C_str
PUBLIC	?_Getfacet@locale@std@@QEBAPEBVfacet@12@_K@Z	; std::locale::_Getfacet
PUBLIC	??$_Adl_verify_range@PEBDPEBD@std@@YAXAEBQEBD0@Z ; std::_Adl_verify_range<char const *,char const *>
PUBLIC	??0ctype_base@std@@QEAA@_K@Z			; std::ctype_base::ctype_base
PUBLIC	??1ctype_base@std@@UEAA@XZ			; std::ctype_base::~ctype_base
PUBLIC	??_Gctype_base@std@@UEAAPEAXI@Z			; std::ctype_base::`scalar deleting destructor'
PUBLIC	?widen@?$ctype@D@std@@QEBAPEBDPEBD0PEAD@Z	; std::ctype<char>::widen
PUBLIC	??0?$ctype@D@std@@QEAA@AEBV_Locinfo@1@_K@Z	; std::ctype<char>::ctype<char>
PUBLIC	?_Getcat@?$ctype@D@std@@SA_KPEAPEBVfacet@locale@2@PEBV42@@Z ; std::ctype<char>::_Getcat
PUBLIC	??1?$ctype@D@std@@MEAA@XZ			; std::ctype<char>::~ctype<char>
PUBLIC	?_Init@?$ctype@D@std@@IEAAXAEBV_Locinfo@2@@Z	; std::ctype<char>::_Init
PUBLIC	?_Tidy@?$ctype@D@std@@IEAAXXZ			; std::ctype<char>::_Tidy
PUBLIC	?do_tolower@?$ctype@D@std@@MEBADD@Z		; std::ctype<char>::do_tolower
PUBLIC	?do_tolower@?$ctype@D@std@@MEBAPEBDPEADPEBD@Z	; std::ctype<char>::do_tolower
PUBLIC	?do_toupper@?$ctype@D@std@@MEBADD@Z		; std::ctype<char>::do_toupper
PUBLIC	?do_toupper@?$ctype@D@std@@MEBAPEBDPEADPEBD@Z	; std::ctype<char>::do_toupper
PUBLIC	?do_widen@?$ctype@D@std@@MEBADD@Z		; std::ctype<char>::do_widen
PUBLIC	?do_widen@?$ctype@D@std@@MEBAPEBDPEBD0PEAD@Z	; std::ctype<char>::do_widen
PUBLIC	?do_narrow@?$ctype@D@std@@MEBADDD@Z		; std::ctype<char>::do_narrow
PUBLIC	?do_narrow@?$ctype@D@std@@MEBAPEBDPEBD0DPEAD@Z	; std::ctype<char>::do_narrow
PUBLIC	??_G?$ctype@D@std@@MEAAPEAXI@Z			; std::ctype<char>::`scalar deleting destructor'
PUBLIC	??$use_facet@V?$ctype@D@std@@@std@@YAAEBV?$ctype@D@0@AEBVlocale@0@@Z ; std::use_facet<std::ctype<char> >
PUBLIC	??$_Adl_verify_range@PEADPEBD@std@@YAXAEBQEADAEBQEBD@Z ; std::_Adl_verify_range<char *,char const *>
PUBLIC	??0failure@ios_base@std@@QEAA@PEBDAEBVerror_code@2@@Z ; std::ios_base::failure::failure
PUBLIC	??1failure@ios_base@std@@UEAA@XZ		; std::ios_base::failure::~failure
PUBLIC	??0failure@ios_base@std@@QEAA@AEBV012@@Z	; std::ios_base::failure::failure
PUBLIC	??_Gfailure@ios_base@std@@UEAAPEAXI@Z		; std::ios_base::failure::`scalar deleting destructor'
PUBLIC	?clear@ios_base@std@@QEAAXH_N@Z			; std::ios_base::clear
PUBLIC	?rdstate@ios_base@std@@QEBAHXZ			; std::ios_base::rdstate
PUBLIC	?good@ios_base@std@@QEBA_NXZ			; std::ios_base::good
PUBLIC	?flags@ios_base@std@@QEBAHXZ			; std::ios_base::flags
PUBLIC	?precision@ios_base@std@@QEBA_JXZ		; std::ios_base::precision
PUBLIC	?width@ios_base@std@@QEBA_JXZ			; std::ios_base::width
PUBLIC	?width@ios_base@std@@QEAA_J_J@Z			; std::ios_base::width
PUBLIC	?getloc@ios_base@std@@QEBA?AVlocale@2@XZ	; std::ios_base::getloc
PUBLIC	??A?$array@H$0EA@@std@@QEBAAEBH_K@Z		; std::array<int,64>::operator[]
PUBLIC	??A?$array@H$0HI@@std@@QEBAAEBH_K@Z		; std::array<int,120>::operator[]
PUBLIC	?printBitboard@@YAX_K@Z				; printBitboard
PUBLIC	?printBitboard@@YAX_KDD@Z			; printBitboard
PUBLIC	?popcount@@YAH_K@Z				; popcount
PUBLIC	?countBit@@YAH_K@Z				; countBit
PUBLIC	?get_lsb@@YAH_K@Z				; get_lsb
PUBLIC	?pop_lsb@@YAHAEA_K@Z				; pop_lsb
PUBLIC	?is_empty@@YA_N_K@Z				; is_empty
PUBLIC	?is_set@@YA_N_KH@Z				; is_set
PUBLIC	?sq64_to_sq120@@YAHH@Z				; sq64_to_sq120
PUBLIC	?sq120_to_sq64@@YAHH@Z				; sq120_to_sq64
PUBLIC	?__builtin_popcountll@@YAH_K@Z			; __builtin_popcountll
PUBLIC	?__builtin_ctzll@@YAH_K@Z			; __builtin_ctzll
PUBLIC	?clear@?$basic_ios@DU?$char_traits@D@std@@@std@@QEAAXH_N@Z ; std::basic_ios<char,std::char_traits<char> >::clear
PUBLIC	?setstate@?$basic_ios@DU?$char_traits@D@std@@@std@@QEAAXH_N@Z ; std::basic_ios<char,std::char_traits<char> >::setstate
PUBLIC	?tie@?$basic_ios@DU?$char_traits@D@std@@@std@@QEBAPEAV?$basic_ostream@DU?$char_traits@D@std@@@2@XZ ; std::basic_ios<char,std::char_traits<char> >::tie
PUBLIC	?rdbuf@?$basic_ios@DU?$char_traits@D@std@@@std@@QEBAPEAV?$basic_streambuf@DU?$char_traits@D@std@@@2@XZ ; std::basic_ios<char,std::char_traits<char> >::rdbuf
PUBLIC	?fill@?$basic_ios@DU?$char_traits@D@std@@@std@@QEBADXZ ; std::basic_ios<char,std::char_traits<char> >::fill
PUBLIC	?_Osfx@?$basic_ostream@DU?$char_traits@D@std@@@std@@QEAAXXZ ; std::basic_ostream<char,std::char_traits<char> >::_Osfx
PUBLIC	??6?$basic_ostream@DU?$char_traits@D@std@@@std@@QEAAAEAV01@H@Z ; std::basic_ostream<char,std::char_traits<char> >::operator<<
PUBLIC	?flush@?$basic_ostream@DU?$char_traits@D@std@@@std@@QEAAAEAV12@XZ ; std::basic_ostream<char,std::char_traits<char> >::flush
PUBLIC	??$?6U?$char_traits@D@std@@@std@@YAAEAV?$basic_ostream@DU?$char_traits@D@std@@@0@AEAV10@PEBD@Z ; std::operator<<<std::char_traits<char> >
PUBLIC	??$?6U?$char_traits@D@std@@@std@@YAAEAV?$basic_ostream@DU?$char_traits@D@std@@@0@AEAV10@D@Z ; std::operator<<<std::char_traits<char> >
PUBLIC	??$min@_K@std@@YAAEB_KAEB_K0@Z			; std::min<unsigned __int64>
PUBLIC	??$_Get_index@$0A@@id@locale@std@@QEAA_KXZ	; std::locale::id::_Get_index<0>
PUBLIC	??R?$default_delete@V_Facet_base@std@@@std@@QEBAXPEAV_Facet_base@1@@Z ; std::default_delete<std::_Facet_base>::operator()
PUBLIC	??1?$unique_ptr@V_Facet_base@std@@U?$default_delete@V_Facet_base@std@@@2@@std@@QEAA@XZ ; std::unique_ptr<std::_Facet_base,std::default_delete<std::_Facet_base> >::~unique_ptr<std::_Facet_base,std::default_delete<std::_Facet_base> >
PUBLIC	?release@?$unique_ptr@V_Facet_base@std@@U?$default_delete@V_Facet_base@std@@@2@@std@@QEAAPEAV_Facet_base@2@XZ ; std::unique_ptr<std::_Facet_base,std::default_delete<std::_Facet_base> >::release
PUBLIC	?_Get_first@?$_Compressed_pair@U?$default_delete@V_Facet_base@std@@@std@@PEAV_Facet_base@2@$00@std@@QEAAAEAU?$default_delete@V_Facet_base@std@@@2@XZ ; std::_Compressed_pair<std::default_delete<std::_Facet_base>,std::_Facet_base *,1>::_Get_first
PUBLIC	??$?0U?$default_delete@V_Facet_base@std@@@std@@$0A@@?$unique_ptr@V_Facet_base@std@@U?$default_delete@V_Facet_base@std@@@2@@std@@QEAA@PEAV_Facet_base@1@@Z ; std::unique_ptr<std::_Facet_base,std::default_delete<std::_Facet_base> >::unique_ptr<std::_Facet_base,std::default_delete<std::_Facet_base> ><std::default_delete<std::_Facet_base>,0>
PUBLIC	??0_Sentry_base@?$basic_ostream@DU?$char_traits@D@std@@@std@@QEAA@AEAV12@@Z ; std::basic_ostream<char,std::char_traits<char> >::_Sentry_base::_Sentry_base
PUBLIC	??1_Sentry_base@?$basic_ostream@DU?$char_traits@D@std@@@std@@QEAA@XZ ; std::basic_ostream<char,std::char_traits<char> >::_Sentry_base::~_Sentry_base
PUBLIC	??0sentry@?$basic_ostream@DU?$char_traits@D@std@@@std@@QEAA@AEAV12@@Z ; std::basic_ostream<char,std::char_traits<char> >::sentry::sentry
PUBLIC	??1sentry@?$basic_ostream@DU?$char_traits@D@std@@@std@@QEAA@XZ ; std::basic_ostream<char,std::char_traits<char> >::sentry::~sentry
PUBLIC	??Bsentry@?$basic_ostream@DU?$char_traits@D@std@@@std@@QEBA_NXZ ; std::basic_ostream<char,std::char_traits<char> >::sentry::operator bool
PUBLIC	?pubsync@?$basic_streambuf@DU?$char_traits@D@std@@@std@@QEAAHXZ ; std::basic_streambuf<char,std::char_traits<char> >::pubsync
PUBLIC	?sputc@?$basic_streambuf@DU?$char_traits@D@std@@@std@@QEAAHD@Z ; std::basic_streambuf<char,std::char_traits<char> >::sputc
PUBLIC	?sputn@?$basic_streambuf@DU?$char_traits@D@std@@@std@@QEAA_JPEBD_J@Z ; std::basic_streambuf<char,std::char_traits<char> >::sputn
PUBLIC	?_Pninc@?$basic_streambuf@DU?$char_traits@D@std@@@std@@IEAAPEADXZ ; std::basic_streambuf<char,std::char_traits<char> >::_Pninc
PUBLIC	?_Pnavail@?$basic_streambuf@DU?$char_traits@D@std@@@std@@IEBA_JXZ ; std::basic_streambuf<char,std::char_traits<char> >::_Pnavail
PUBLIC	??$_Convert_size@_K_K@std@@YA_K_K@Z		; std::_Convert_size<unsigned __int64,unsigned __int64>
PUBLIC	??$move@AEAV?$allocator@D@std@@@std@@YA$$QEAV?$allocator@D@0@AEAV10@@Z ; std::move<std::allocator<char> &>
PUBLIC	??$?0V?$allocator@D@std@@$$V@?$_Compressed_pair@V?$allocator@D@std@@V?$_String_val@U?$_Simple_types@D@std@@@2@$00@std@@QEAA@U_One_then_variadic_args_t@1@$$QEAV?$allocator@D@1@@Z ; std::_Compressed_pair<std::allocator<char>,std::_String_val<std::_Simple_types<char> >,1>::_Compressed_pair<std::allocator<char>,std::_String_val<std::_Simple_types<char> >,1><std::allocator<char> >
PUBLIC	??$?0$$V@?$_Compressed_pair@V?$allocator@D@std@@V?$_String_val@U?$_Simple_types@D@std@@@2@$00@std@@QEAA@U_Zero_then_variadic_args_t@1@@Z ; std::_Compressed_pair<std::allocator<char>,std::_String_val<std::_Simple_types<char> >,1>::_Compressed_pair<std::allocator<char>,std::_String_val<std::_Simple_types<char> >,1><>
PUBLIC	??$_Construct@$00PEBD@?$basic_string@DU?$char_traits@D@std@@V?$allocator@D@2@@std@@AEAAXQEBD_K@Z ; std::basic_string<char,std::char_traits<char>,std::allocator<char> >::_Construct<1,char const *>
PUBLIC	??$_Construct@$01PEBD@?$basic_string@DU?$char_traits@D@std@@V?$allocator@D@2@@std@@AEAAXQEBD_K@Z ; std::basic_string<char,std::char_traits<char>,std::allocator<char> >::_Construct<2,char const *>
PUBLIC	??$use_facet@V?$num_put@DV?$ostreambuf_iterator@DU?$char_traits@D@std@@@std@@@std@@@std@@YAAEBV?$num_put@DV?$ostreambuf_iterator@DU?$char_traits@D@std@@@std@@@0@AEBVlocale@0@@Z ; std::use_facet<std::num_put<char,std::ostreambuf_iterator<char,std::char_traits<char> > > >
PUBLIC	?_Getcat@?$num_put@DV?$ostreambuf_iterator@DU?$char_traits@D@std@@@std@@@std@@SA_KPEAPEBVfacet@locale@2@PEBV42@@Z ; std::num_put<char,std::ostreambuf_iterator<char,std::char_traits<char> > >::_Getcat
PUBLIC	??1?$num_put@DV?$ostreambuf_iterator@DU?$char_traits@D@std@@@std@@@std@@MEAA@XZ ; std::num_put<char,std::ostreambuf_iterator<char,std::char_traits<char> > >::~num_put<char,std::ostreambuf_iterator<char,std::char_traits<char> > >
PUBLIC	?_Init@?$num_put@DV?$ostreambuf_iterator@DU?$char_traits@D@std@@@std@@@std@@IEAAXAEBV_Locinfo@2@@Z ; std::num_put<char,std::ostreambuf_iterator<char,std::char_traits<char> > >::_Init
PUBLIC	??0?$num_put@DV?$ostreambuf_iterator@DU?$char_traits@D@std@@@std@@@std@@QEAA@AEBV_Locinfo@1@_K@Z ; std::num_put<char,std::ostreambuf_iterator<char,std::char_traits<char> > >::num_put<char,std::ostreambuf_iterator<char,std::char_traits<char> > >
PUBLIC	?put@?$num_put@DV?$ostreambuf_iterator@DU?$char_traits@D@std@@@std@@@std@@QEBA?AV?$ostreambuf_iterator@DU?$char_traits@D@std@@@2@V32@AEAVios_base@2@DJ@Z ; std::num_put<char,std::ostreambuf_iterator<char,std::char_traits<char> > >::put
PUBLIC	?do_put@?$num_put@DV?$ostreambuf_iterator@DU?$char_traits@D@std@@@std@@@std@@MEBA?AV?$ostreambuf_iterator@DU?$char_traits@D@std@@@2@V32@AEAVios_base@2@D_N@Z ; std::num_put<char,std::ostreambuf_iterator<char,std::char_traits<char> > >::do_put
PUBLIC	?do_put@?$num_put@DV?$ostreambuf_iterator@DU?$char_traits@D@std@@@std@@@std@@MEBA?AV?$ostreambuf_iterator@DU?$char_traits@D@std@@@2@V32@AEAVios_base@2@DJ@Z ; std::num_put<char,std::ostreambuf_iterator<char,std::char_traits<char> > >::do_put
PUBLIC	?do_put@?$num_put@DV?$ostreambuf_iterator@DU?$char_traits@D@std@@@std@@@std@@MEBA?AV?$ostreambuf_iterator@DU?$char_traits@D@std@@@2@V32@AEAVios_base@2@DK@Z ; std::num_put<char,std::ostreambuf_iterator<char,std::char_traits<char> > >::do_put
PUBLIC	?do_put@?$num_put@DV?$ostreambuf_iterator@DU?$char_traits@D@std@@@std@@@std@@MEBA?AV?$ostreambuf_iterator@DU?$char_traits@D@std@@@2@V32@AEAVios_base@2@D_J@Z ; std::num_put<char,std::ostreambuf_iterator<char,std::char_traits<char> > >::do_put
PUBLIC	?do_put@?$num_put@DV?$ostreambuf_iterator@DU?$char_traits@D@std@@@std@@@std@@MEBA?AV?$ostreambuf_iterator@DU?$char_traits@D@std@@@2@V32@AEAVios_base@2@D_K@Z ; std::num_put<char,std::ostreambuf_iterator<char,std::char_traits<char> > >::do_put
PUBLIC	?do_put@?$num_put@DV?$ostreambuf_iterator@DU?$char_traits@D@std@@@std@@@std@@MEBA?AV?$ostreambuf_iterator@DU?$char_traits@D@std@@@2@V32@AEAVios_base@2@DN@Z ; std::num_put<char,std::ostreambuf_iterator<char,std::char_traits<char> > >::do_put
PUBLIC	?do_put@?$num_put@DV?$ostreambuf_iterator@DU?$char_traits@D@std@@@std@@@std@@MEBA?AV?$ostreambuf_iterator@DU?$char_traits@D@std@@@2@V32@AEAVios_base@2@DO@Z ; std::num_put<char,std::ostreambuf_iterator<char,std::char_traits<char> > >::do_put
PUBLIC	?do_put@?$num_put@DV?$ostreambuf_iterator@DU?$char_traits@D@std@@@std@@@std@@MEBA?AV?$ostreambuf_iterator@DU?$char_traits@D@std@@@2@V32@AEAVios_base@2@DPEBX@Z ; std::num_put<char,std::ostreambuf_iterator<char,std::char_traits<char> > >::do_put
PUBLIC	?_Ffmt@?$num_put@DV?$ostreambuf_iterator@DU?$char_traits@D@std@@@std@@@std@@AEBAPEADPEADDH@Z ; std::num_put<char,std::ostreambuf_iterator<char,std::char_traits<char> > >::_Ffmt
PUBLIC	?_Ifmt@?$num_put@DV?$ostreambuf_iterator@DU?$char_traits@D@std@@@std@@@std@@AEBAPEADPEADPEBDH@Z ; std::num_put<char,std::ostreambuf_iterator<char,std::char_traits<char> > >::_Ifmt
PUBLIC	?_Iput@?$num_put@DV?$ostreambuf_iterator@DU?$char_traits@D@std@@@std@@@std@@AEBA?AV?$ostreambuf_iterator@DU?$char_traits@D@std@@@2@V32@AEAVios_base@2@DPEAD_K@Z ; std::num_put<char,std::ostreambuf_iterator<char,std::char_traits<char> > >::_Iput
PUBLIC	?_Put@?$num_put@DV?$ostreambuf_iterator@DU?$char_traits@D@std@@@std@@@std@@AEBA?AV?$ostreambuf_iterator@DU?$char_traits@D@std@@@2@V32@PEBD_K@Z ; std::num_put<char,std::ostreambuf_iterator<char,std::char_traits<char> > >::_Put
PUBLIC	?_Rep@?$num_put@DV?$ostreambuf_iterator@DU?$char_traits@D@std@@@std@@@std@@AEBA?AV?$ostreambuf_iterator@DU?$char_traits@D@std@@@2@V32@D_K@Z ; std::num_put<char,std::ostreambuf_iterator<char,std::char_traits<char> > >::_Rep
PUBLIC	??_G?$num_put@DV?$ostreambuf_iterator@DU?$char_traits@D@std@@@std@@@std@@MEAAPEAXI@Z ; std::num_put<char,std::ostreambuf_iterator<char,std::char_traits<char> > >::`scalar deleting destructor'
PUBLIC	??0?$ostreambuf_iterator@DU?$char_traits@D@std@@@std@@QEAA@PEAV?$basic_streambuf@DU?$char_traits@D@std@@@1@@Z ; std::ostreambuf_iterator<char,std::char_traits<char> >::ostreambuf_iterator<char,std::char_traits<char> >
PUBLIC	??4?$ostreambuf_iterator@DU?$char_traits@D@std@@@std@@QEAAAEAV01@D@Z ; std::ostreambuf_iterator<char,std::char_traits<char> >::operator=
PUBLIC	??D?$ostreambuf_iterator@DU?$char_traits@D@std@@@std@@QEAAAEAV01@XZ ; std::ostreambuf_iterator<char,std::char_traits<char> >::operator*
PUBLIC	??E?$ostreambuf_iterator@DU?$char_traits@D@std@@@std@@QEAAAEAV01@XZ ; std::ostreambuf_iterator<char,std::char_traits<char> >::operator++
PUBLIC	?failed@?$ostreambuf_iterator@DU?$char_traits@D@std@@@std@@QEBA_NXZ ; std::ostreambuf_iterator<char,std::char_traits<char> >::failed
PUBLIC	??$?0AEAPEAV_Facet_base@std@@@?$_Compressed_pair@U?$default_delete@V_Facet_base@std@@@std@@PEAV_Facet_base@2@$00@std@@QEAA@U_Zero_then_variadic_args_t@1@AEAPEAV_Facet_base@1@@Z ; std::_Compressed_pair<std::default_delete<std::_Facet_base>,std::_Facet_base *,1>::_Compressed_pair<std::default_delete<std::_Facet_base>,std::_Facet_base *,1><std::_Facet_base * &>
PUBLIC	??$forward@V?$allocator@D@std@@@std@@YA$$QEAV?$allocator@D@0@AEAV10@@Z ; std::forward<std::allocator<char> >
PUBLIC	??$_Allocate_for_capacity@$0A@@?$basic_string@DU?$char_traits@D@std@@V?$allocator@D@2@@std@@CAPEADAEAV?$allocator@D@1@AEA_K@Z ; std::basic_string<char,std::char_traits<char>,std::allocator<char> >::_Allocate_for_capacity<0>
PUBLIC	??$_Construct_in_place@PEADAEBQEAD@std@@YAXAEAPEADAEBQEAD@Z ; std::_Construct_in_place<char *,char * const &>
PUBLIC	??$_Unfancy@D@std@@YAPEADPEAD@Z			; std::_Unfancy<char>
PUBLIC	??$exchange@PEAV_Facet_base@std@@$$T@std@@YAPEAV_Facet_base@0@AEAPEAV10@$$QEA$$T@Z ; std::exchange<std::_Facet_base *,std::nullptr_t>
PUBLIC	??$addressof@V?$basic_ostream@DU?$char_traits@D@std@@@std@@@std@@YAPEAV?$basic_ostream@DU?$char_traits@D@std@@@0@AEAV10@@Z ; std::addressof<std::basic_ostream<char,std::char_traits<char> > >
PUBLIC	??$_Float_put_desired_precision@O@std@@YAH_JH@Z	; std::_Float_put_desired_precision<long double>
PUBLIC	??$isfinite@O@@YA_NO@Z				; isfinite<long double>
PUBLIC	??$_Fput_v3@$0A@@?$num_put@DV?$ostreambuf_iterator@DU?$char_traits@D@std@@@std@@@std@@AEBA?AV?$ostreambuf_iterator@DU?$char_traits@D@std@@@1@V21@AEAVios_base@1@DPEBD_K_N@Z ; std::num_put<char,std::ostreambuf_iterator<char,std::char_traits<char> > >::_Fput_v3<0>
PUBLIC	??$_Float_put_desired_precision@N@std@@YAH_JH@Z	; std::_Float_put_desired_precision<double>
PUBLIC	??$isfinite@N@@YA_NN@Z				; isfinite<double>
PUBLIC	??$use_facet@V?$numpunct@D@std@@@std@@YAAEBV?$numpunct@D@0@AEBVlocale@0@@Z ; std::use_facet<std::numpunct<char> >
PUBLIC	?decimal_point@?$numpunct@D@std@@QEBADXZ	; std::numpunct<char>::decimal_point
PUBLIC	?thousands_sep@?$numpunct@D@std@@QEBADXZ	; std::numpunct<char>::thousands_sep
PUBLIC	?grouping@?$numpunct@D@std@@QEBA?AV?$basic_string@DU?$char_traits@D@std@@V?$allocator@D@2@@2@XZ ; std::numpunct<char>::grouping
PUBLIC	?falsename@?$numpunct@D@std@@QEBA?AV?$basic_string@DU?$char_traits@D@std@@V?$allocator@D@2@@2@XZ ; std::numpunct<char>::falsename
PUBLIC	?truename@?$numpunct@D@std@@QEBA?AV?$basic_string@DU?$char_traits@D@std@@V?$allocator@D@2@@2@XZ ; std::numpunct<char>::truename
PUBLIC	??0?$numpunct@D@std@@QEAA@AEBV_Locinfo@1@_K_N@Z	; std::numpunct<char>::numpunct<char>
PUBLIC	?_Getcat@?$numpunct@D@std@@SA_KPEAPEBVfacet@locale@2@PEBV42@@Z ; std::numpunct<char>::_Getcat
PUBLIC	??1?$numpunct@D@std@@MEAA@XZ			; std::numpunct<char>::~numpunct<char>
PUBLIC	?_Init@?$numpunct@D@std@@IEAAXAEBV_Locinfo@2@_N@Z ; std::numpunct<char>::_Init
PUBLIC	?do_decimal_point@?$numpunct@D@std@@MEBADXZ	; std::numpunct<char>::do_decimal_point
PUBLIC	?do_thousands_sep@?$numpunct@D@std@@MEBADXZ	; std::numpunct<char>::do_thousands_sep
PUBLIC	?do_grouping@?$numpunct@D@std@@MEBA?AV?$basic_string@DU?$char_traits@D@std@@V?$allocator@D@2@@2@XZ ; std::numpunct<char>::do_grouping
PUBLIC	?do_falsename@?$numpunct@D@std@@MEBA?AV?$basic_string@DU?$char_traits@D@std@@V?$allocator@D@2@@2@XZ ; std::numpunct<char>::do_falsename
PUBLIC	?do_truename@?$numpunct@D@std@@MEBA?AV?$basic_string@DU?$char_traits@D@std@@V?$allocator@D@2@@2@XZ ; std::numpunct<char>::do_truename
PUBLIC	?_Tidy@?$numpunct@D@std@@AEAAXXZ		; std::numpunct<char>::_Tidy
PUBLIC	??_G?$numpunct@D@std@@MEAAPEAXI@Z		; std::numpunct<char>::`scalar deleting destructor'
PUBLIC	??$move@AEAV?$basic_string@DU?$char_traits@D@std@@V?$allocator@D@2@@std@@@std@@YA$$QEAV?$basic_string@DU?$char_traits@D@std@@V?$allocator@D@2@@0@AEAV10@@Z ; std::move<std::basic_string<char,std::char_traits<char>,std::allocator<char> > &>
PUBLIC	??R<lambda_65e615be2a453ca0576c979606f46740>@@QEBA@QEADQEBD_K12@Z ; <lambda_65e615be2a453ca0576c979606f46740>::operator()
PUBLIC	??$_Reallocate_grow_by@V<lambda_65e615be2a453ca0576c979606f46740>@@PEBD_K@?$basic_string@DU?$char_traits@D@std@@V?$allocator@D@2@@std@@AEAAAEAV01@_KV<lambda_65e615be2a453ca0576c979606f46740>@@PEBD_K@Z ; std::basic_string<char,std::char_traits<char>,std::allocator<char> >::_Reallocate_grow_by<<lambda_65e615be2a453ca0576c979606f46740>,char const *,unsigned __int64>
PUBLIC	??$addressof@V?$_String_val@U?$_Simple_types@D@std@@@std@@@std@@YAPEAV?$_String_val@U?$_Simple_types@D@std@@@0@AEAV10@@Z ; std::addressof<std::_String_val<std::_Simple_types<char> > >
PUBLIC	??$_Construct_in_place@PEADAEAPEAD@std@@YAXAEAPEAD0@Z ; std::_Construct_in_place<char *,char * &>
PUBLIC	??$forward@AEAPEAV_Facet_base@std@@@std@@YAAEAPEAV_Facet_base@0@AEAPEAV10@@Z ; std::forward<std::_Facet_base * &>
PUBLIC	??$_Allocate_at_least_helper@V?$allocator@D@std@@@std@@YAPEADAEAV?$allocator@D@0@AEA_K@Z ; std::_Allocate_at_least_helper<std::allocator<char> >
PUBLIC	??$addressof@PEAD@std@@YAPEAPEADAEAPEAD@Z	; std::addressof<char *>
PUBLIC	??$forward@AEBQEAD@std@@YAAEBQEADAEBQEAD@Z	; std::forward<char * const &>
PUBLIC	??$forward@AEAPEAD@std@@YAAEAPEADAEAPEAD@Z	; std::forward<char * &>
PUBLIC	??$?0$0A@@id@locale@std@@QEAA@XZ		; std::locale::id::id<0>
PUBLIC	??$_Destroy_in_place@PEAD@std@@YAXAEAPEAD@Z	; std::_Destroy_in_place<char *>
PUBLIC	??$max@_K@std@@YAAEB_KAEB_K0@Z			; std::max<unsigned __int64>
PUBLIC	??$_Max_limit@_J@std@@YA_JXZ			; std::_Max_limit<__int64>
PUBLIC	??$_Deallocate@$0BA@@std@@YAXPEAX_K@Z		; std::_Deallocate<16>
PUBLIC	??R<lambda_b986da8d428e4af07c64af60eec09b61>@@QEBA@QEADQEBD_K22D@Z ; <lambda_b986da8d428e4af07c64af60eec09b61>::operator()
PUBLIC	??$_Reallocate_grow_by@V<lambda_b986da8d428e4af07c64af60eec09b61>@@_K_KD@?$basic_string@DU?$char_traits@D@std@@V?$allocator@D@2@@std@@AEAAAEAV01@_KV<lambda_b986da8d428e4af07c64af60eec09b61>@@_K2D@Z ; std::basic_string<char,std::char_traits<char>,std::allocator<char> >::_Reallocate_grow_by<<lambda_b986da8d428e4af07c64af60eec09b61>,unsigned __int64,unsigned __int64,char>
PUBLIC	??R<lambda_e1befb086ad3257e3f042a63030725f7>@@QEBA@QEADQEBD_K2D@Z ; <lambda_e1befb086ad3257e3f042a63030725f7>::operator()
PUBLIC	??$_Reallocate_grow_by@V<lambda_e1befb086ad3257e3f042a63030725f7>@@_KD@?$basic_string@DU?$char_traits@D@std@@V?$allocator@D@2@@std@@AEAAAEAV01@_KV<lambda_e1befb086ad3257e3f042a63030725f7>@@_KD@Z ; std::basic_string<char,std::char_traits<char>,std::allocator<char> >::_Reallocate_grow_by<<lambda_e1befb086ad3257e3f042a63030725f7>,unsigned __int64,char>
PUBLIC	??$addressof@V?$basic_string@DU?$char_traits@D@std@@V?$allocator@D@2@@std@@@std@@YAPEAV?$basic_string@DU?$char_traits@D@std@@V?$allocator@D@2@@0@AEAV10@@Z ; std::addressof<std::basic_string<char,std::char_traits<char>,std::allocator<char> > >
PUBLIC	??$_Pocma@V?$allocator@D@std@@@std@@YAXAEAV?$allocator@D@0@0@Z ; std::_Pocma<std::allocator<char> >
PUBLIC	??$_Construct@$0A@D@?$basic_string@DU?$char_traits@D@std@@V?$allocator@D@2@@std@@AEAAXD_K@Z ; std::basic_string<char,std::char_traits<char>,std::allocator<char> >::_Construct<0,char>
PUBLIC	??$_Allocate@$0BA@U_Default_allocate_traits@std@@@std@@YAPEAX_K@Z ; std::_Allocate<16,std::_Default_allocate_traits>
PUBLIC	??$_Get_size_of_n@$00@std@@YA_K_K@Z		; std::_Get_size_of_n<1>
PUBLIC	??$_Allocate_manually_vector_aligned@U_Default_allocate_traits@std@@@std@@YAPEAX_K@Z ; std::_Allocate_manually_vector_aligned<std::_Default_allocate_traits>
PUBLIC	??1?$_Tidy_guard@V?$numpunct@D@std@@@std@@QEAA@XZ ; std::_Tidy_guard<std::numpunct<char> >::~_Tidy_guard<std::numpunct<char> >
PUBLIC	??$_Maklocstr@D@std@@YAPEADPEBDPEADAEBU_Cvtvec@@@Z ; std::_Maklocstr<char>
PUBLIC	??$_Maklocchr@D@std@@YADDPEADAEBU_Cvtvec@@@Z	; std::_Maklocchr<char>
PUBLIC	?_OptionsStorage@?1??__local_stdio_printf_options@@9@4_KA ; `__local_stdio_printf_options'::`2'::_OptionsStorage
PUBLIC	??_7exception@std@@6B@				; std::exception::`vftable'
PUBLIC	??_C@_0BC@EOODALEL@Unknown?5exception@		; `string'
PUBLIC	??_7bad_alloc@std@@6B@				; std::bad_alloc::`vftable'
PUBLIC	??_7bad_array_new_length@std@@6B@		; std::bad_array_new_length::`vftable'
PUBLIC	??_C@_0BF@KINCDENJ@bad?5array?5new?5length@	; `string'
PUBLIC	??_R0?AVexception@std@@@8			; std::exception `RTTI Type Descriptor'
PUBLIC	_CT??_R0?AVexception@std@@@8??0exception@std@@QEAA@AEBV01@@Z24
PUBLIC	_TI3?AVbad_array_new_length@std@@
PUBLIC	_CTA3?AVbad_array_new_length@std@@
PUBLIC	??_R0?AVbad_array_new_length@std@@@8		; std::bad_array_new_length `RTTI Type Descriptor'
PUBLIC	_CT??_R0?AVbad_array_new_length@std@@@8??0bad_array_new_length@std@@QEAA@AEBV01@@Z24
PUBLIC	??_R0?AVbad_alloc@std@@@8			; std::bad_alloc `RTTI Type Descriptor'
PUBLIC	_CT??_R0?AVbad_alloc@std@@@8??0bad_alloc@std@@QEAA@AEBV01@@Z24
PUBLIC	??_C@_0BA@JFNIOLAK@string?5too?5long@		; `string'
PUBLIC	??_7runtime_error@std@@6B@			; std::runtime_error::`vftable'
PUBLIC	??_R0?AVruntime_error@std@@@8			; std::runtime_error `RTTI Type Descriptor'
PUBLIC	_CT??_R0?AVruntime_error@std@@@8??0runtime_error@std@@QEAA@AEBV01@@Z24
PUBLIC	??_7_System_error@std@@6B@			; std::_System_error::`vftable'
PUBLIC	??_C@_02LMMGGCAJ@?3?5@				; `string'
PUBLIC	??_7system_error@std@@6B@			; std::system_error::`vftable'
PUBLIC	??_R0?AVsystem_error@std@@@8			; std::system_error `RTTI Type Descriptor'
PUBLIC	_CT??_R0?AVsystem_error@std@@@8??0system_error@std@@QEAA@AEBV01@@Z40
PUBLIC	??_R0?AV_System_error@std@@@8			; std::_System_error `RTTI Type Descriptor'
PUBLIC	_CT??_R0?AV_System_error@std@@@8??0_System_error@std@@QEAA@AEBV01@@Z40
PUBLIC	??_7_Iostream_error_category2@std@@6B@		; std::_Iostream_error_category2::`vftable'
PUBLIC	??_C@_08LLGCOLLL@iostream@			; `string'
PUBLIC	?_Iostream_error@?4??message@_Iostream_error_category2@std@@UEBA?AV?$basic_string@DU?$char_traits@D@std@@V?$allocator@D@2@@3@H@Z@4QBDB ; `std::_Iostream_error_category2::message'::`5'::_Iostream_error
PUBLIC	??_7bad_cast@std@@6B@				; std::bad_cast::`vftable'
PUBLIC	??_C@_08EPJLHIJG@bad?5cast@			; `string'
PUBLIC	_TI2?AVbad_cast@std@@
PUBLIC	_CTA2?AVbad_cast@std@@
PUBLIC	??_R0?AVbad_cast@std@@@8			; std::bad_cast `RTTI Type Descriptor'
PUBLIC	_CT??_R0?AVbad_cast@std@@@8??0bad_cast@std@@QEAA@AEBV01@@Z24
PUBLIC	??_7_Facet_base@std@@6B@			; std::_Facet_base::`vftable'
PUBLIC	??_C@_0BA@ELKIONDK@bad?5locale?5name@		; `string'
PUBLIC	??_C@_05LAPONLG@false@				; `string'
PUBLIC	??_C@_04LOAJBDKD@true@				; `string'
PUBLIC	??_7facet@locale@std@@6B@			; std::locale::facet::`vftable'
PUBLIC	??_C@_00CNPNBAHC@@				; `string'
PUBLIC	??_7ctype_base@std@@6B@				; std::ctype_base::`vftable'
PUBLIC	??_7?$ctype@D@std@@6B@				; std::ctype<char>::`vftable'
PUBLIC	??_7failure@ios_base@std@@6B@			; std::ios_base::failure::`vftable'
PUBLIC	??_C@_0BF@PHHKMMFD@ios_base?3?3badbit?5set@	; `string'
PUBLIC	??_C@_0BG@FMKFHCIL@ios_base?3?3failbit?5set@	; `string'
PUBLIC	??_C@_0BF@OOHOMBOF@ios_base?3?3eofbit?5set@	; `string'
PUBLIC	_TI5?AVfailure@ios_base@std@@
PUBLIC	_CTA5?AVfailure@ios_base@std@@
PUBLIC	??_R0?AVfailure@ios_base@std@@@8		; std::ios_base::failure `RTTI Type Descriptor'
PUBLIC	_CT??_R0?AVfailure@ios_base@std@@@8??0failure@ios_base@std@@QEAA@AEBV012@@Z40
PUBLIC	?MAILBOX_MAPS@@3UMailboxMaps@@B			; MAILBOX_MAPS
PUBLIC	??_C@_01EEMJAFIK@?6@				; `string'
PUBLIC	??_C@_0BF@LPLGMNDO@?5?5?5?5a?5b?5c?5d?5e?5f?5g?5h?6@ ; `string'
PUBLIC	??_C@_0BF@BJGAADKO@?5?5?$CL?9?9?9?9?9?9?9?9?9?9?9?9?9?9?9?$CL?6@ ; `string'
PUBLIC	??_C@_03LGOGDKEL@?5?$HM?5@			; `string'
PUBLIC	??_C@_01CLKCMJKC@?5@				; `string'
PUBLIC	??_C@_02MINBJDHL@?$HM?5@			; `string'
PUBLIC	??_C@_0BG@DLDBEDOM@?5?5?5?5a?5b?5c?5d?5e?5f?5g?5h?6?6@ ; `string'
PUBLIC	?_Static@?1???$_Immortalize_memcpy_image@V_Iostream_error_category2@std@@@std@@YAAEBV_Iostream_error_category2@1@XZ@4U?$_Constexpr_immortalize_impl@V_Iostream_error_category2@std@@@1@A ; `std::_Immortalize_memcpy_image<std::_Iostream_error_category2>'::`2'::_Static
PUBLIC	?_Psave@?$_Facetptr@V?$ctype@D@std@@@std@@2PEBVfacet@locale@2@EB ; std::_Facetptr<std::ctype<char> >::_Psave
PUBLIC	?id@?$num_put@DV?$ostreambuf_iterator@DU?$char_traits@D@std@@@std@@@std@@2V0locale@2@A ; std::num_put<char,std::ostreambuf_iterator<char,std::char_traits<char> > >::id
PUBLIC	??_7?$num_put@DV?$ostreambuf_iterator@DU?$char_traits@D@std@@@std@@@std@@6B@ ; std::num_put<char,std::ostreambuf_iterator<char,std::char_traits<char> > >::`vftable'
PUBLIC	?_Psave@?$_Facetptr@V?$num_put@DV?$ostreambuf_iterator@DU?$char_traits@D@std@@@std@@@std@@@std@@2PEBVfacet@locale@2@EB ; std::_Facetptr<std::num_put<char,std::ostreambuf_iterator<char,std::char_traits<char> > > >::_Psave
PUBLIC	??_C@_02BBAHNLBA@?$CFp@				; `string'
PUBLIC	?id@?$numpunct@D@std@@2V0locale@2@A		; std::numpunct<char>::id
PUBLIC	??_7?$numpunct@D@std@@6B@			; std::numpunct<char>::`vftable'
PUBLIC	??_C@_02MDKMJEGG@eE@				; `string'
PUBLIC	??_C@_02OOPEBDOJ@pP@				; `string'
PUBLIC	?_Psave@?$_Facetptr@V?$numpunct@D@std@@@std@@2PEBVfacet@locale@2@EB ; std::_Facetptr<std::numpunct<char> >::_Psave
PUBLIC	??_C@_0BI@CFPLBAOH@invalid?5string?5position@	; `string'
PUBLIC	??_R4exception@std@@6B@				; std::exception::`RTTI Complete Object Locator'
PUBLIC	??_R3exception@std@@8				; std::exception::`RTTI Class Hierarchy Descriptor'
PUBLIC	??_R2exception@std@@8				; std::exception::`RTTI Base Class Array'
PUBLIC	??_R1A@?0A@EA@exception@std@@8			; std::exception::`RTTI Base Class Descriptor at (0,-1,0,64)'
PUBLIC	??_R4bad_array_new_length@std@@6B@		; std::bad_array_new_length::`RTTI Complete Object Locator'
PUBLIC	??_R3bad_array_new_length@std@@8		; std::bad_array_new_length::`RTTI Class Hierarchy Descriptor'
PUBLIC	??_R2bad_array_new_length@std@@8		; std::bad_array_new_length::`RTTI Base Class Array'
PUBLIC	??_R1A@?0A@EA@bad_array_new_length@std@@8	; std::bad_array_new_length::`RTTI Base Class Descriptor at (0,-1,0,64)'
PUBLIC	??_R1A@?0A@EA@bad_alloc@std@@8			; std::bad_alloc::`RTTI Base Class Descriptor at (0,-1,0,64)'
PUBLIC	??_R3bad_alloc@std@@8				; std::bad_alloc::`RTTI Class Hierarchy Descriptor'
PUBLIC	??_R2bad_alloc@std@@8				; std::bad_alloc::`RTTI Base Class Array'
PUBLIC	??_R4bad_alloc@std@@6B@				; std::bad_alloc::`RTTI Complete Object Locator'
PUBLIC	??_R4runtime_error@std@@6B@			; std::runtime_error::`RTTI Complete Object Locator'
PUBLIC	??_R3runtime_error@std@@8			; std::runtime_error::`RTTI Class Hierarchy Descriptor'
PUBLIC	??_R2runtime_error@std@@8			; std::runtime_error::`RTTI Base Class Array'
PUBLIC	??_R1A@?0A@EA@runtime_error@std@@8		; std::runtime_error::`RTTI Base Class Descriptor at (0,-1,0,64)'
PUBLIC	??_R0?AVerror_category@std@@@8			; std::error_category `RTTI Type Descriptor'
PUBLIC	??_R3error_category@std@@8			; std::error_category::`RTTI Class Hierarchy Descriptor'
PUBLIC	??_R2error_category@std@@8			; std::error_category::`RTTI Base Class Array'
PUBLIC	??_R1A@?0A@EA@error_category@std@@8		; std::error_category::`RTTI Base Class Descriptor at (0,-1,0,64)'
PUBLIC	??_R4_System_error@std@@6B@			; std::_System_error::`RTTI Complete Object Locator'
PUBLIC	??_R3_System_error@std@@8			; std::_System_error::`RTTI Class Hierarchy Descriptor'
PUBLIC	??_R2_System_error@std@@8			; std::_System_error::`RTTI Base Class Array'
PUBLIC	??_R1A@?0A@EA@_System_error@std@@8		; std::_System_error::`RTTI Base Class Descriptor at (0,-1,0,64)'
PUBLIC	??_R4system_error@std@@6B@			; std::system_error::`RTTI Complete Object Locator'
PUBLIC	??_R3system_error@std@@8			; std::system_error::`RTTI Class Hierarchy Descriptor'
PUBLIC	??_R2system_error@std@@8			; std::system_error::`RTTI Base Class Array'
PUBLIC	??_R1A@?0A@EA@system_error@std@@8		; std::system_error::`RTTI Base Class Descriptor at (0,-1,0,64)'
PUBLIC	??_R4_Iostream_error_category2@std@@6B@		; std::_Iostream_error_category2::`RTTI Complete Object Locator'
PUBLIC	??_R0?AV_Iostream_error_category2@std@@@8	; std::_Iostream_error_category2 `RTTI Type Descriptor'
PUBLIC	??_R3_Iostream_error_category2@std@@8		; std::_Iostream_error_category2::`RTTI Class Hierarchy Descriptor'
PUBLIC	??_R2_Iostream_error_category2@std@@8		; std::_Iostream_error_category2::`RTTI Base Class Array'
PUBLIC	??_R1A@?0A@EA@_Iostream_error_category2@std@@8	; std::_Iostream_error_category2::`RTTI Base Class Descriptor at (0,-1,0,64)'
PUBLIC	??_R4bad_cast@std@@6B@				; std::bad_cast::`RTTI Complete Object Locator'
PUBLIC	??_R3bad_cast@std@@8				; std::bad_cast::`RTTI Class Hierarchy Descriptor'
PUBLIC	??_R2bad_cast@std@@8				; std::bad_cast::`RTTI Base Class Array'
PUBLIC	??_R1A@?0A@EA@bad_cast@std@@8			; std::bad_cast::`RTTI Base Class Descriptor at (0,-1,0,64)'
PUBLIC	??_R4_Facet_base@std@@6B@			; std::_Facet_base::`RTTI Complete Object Locator'
PUBLIC	??_R0?AV_Facet_base@std@@@8			; std::_Facet_base `RTTI Type Descriptor'
PUBLIC	??_R3_Facet_base@std@@8				; std::_Facet_base::`RTTI Class Hierarchy Descriptor'
PUBLIC	??_R2_Facet_base@std@@8				; std::_Facet_base::`RTTI Base Class Array'
PUBLIC	??_R1A@?0A@EA@_Facet_base@std@@8		; std::_Facet_base::`RTTI Base Class Descriptor at (0,-1,0,64)'
PUBLIC	??_R4facet@locale@std@@6B@			; std::locale::facet::`RTTI Complete Object Locator'
PUBLIC	??_R0?AVfacet@locale@std@@@8			; std::locale::facet `RTTI Type Descriptor'
PUBLIC	??_R3facet@locale@std@@8			; std::locale::facet::`RTTI Class Hierarchy Descriptor'
PUBLIC	??_R2facet@locale@std@@8			; std::locale::facet::`RTTI Base Class Array'
PUBLIC	??_R1A@?0A@EA@facet@locale@std@@8		; std::locale::facet::`RTTI Base Class Descriptor at (0,-1,0,64)'
PUBLIC	??_R17?0A@EA@_Crt_new_delete@std@@8		; std::_Crt_new_delete::`RTTI Base Class Descriptor at (8,-1,0,64)'
PUBLIC	??_R0?AU_Crt_new_delete@std@@@8			; std::_Crt_new_delete `RTTI Type Descriptor'
PUBLIC	??_R3_Crt_new_delete@std@@8			; std::_Crt_new_delete::`RTTI Class Hierarchy Descriptor'
PUBLIC	??_R2_Crt_new_delete@std@@8			; std::_Crt_new_delete::`RTTI Base Class Array'
PUBLIC	??_R1A@?0A@EA@_Crt_new_delete@std@@8		; std::_Crt_new_delete::`RTTI Base Class Descriptor at (0,-1,0,64)'
PUBLIC	??_R4ctype_base@std@@6B@			; std::ctype_base::`RTTI Complete Object Locator'
PUBLIC	??_R0?AUctype_base@std@@@8			; std::ctype_base `RTTI Type Descriptor'
PUBLIC	??_R3ctype_base@std@@8				; std::ctype_base::`RTTI Class Hierarchy Descriptor'
PUBLIC	??_R2ctype_base@std@@8				; std::ctype_base::`RTTI Base Class Array'
PUBLIC	??_R1A@?0A@EA@ctype_base@std@@8			; std::ctype_base::`RTTI Base Class Descriptor at (0,-1,0,64)'
PUBLIC	??_R4?$ctype@D@std@@6B@				; std::ctype<char>::`RTTI Complete Object Locator'
PUBLIC	??_R0?AV?$ctype@D@std@@@8			; std::ctype<char> `RTTI Type Descriptor'
PUBLIC	??_R3?$ctype@D@std@@8				; std::ctype<char>::`RTTI Class Hierarchy Descriptor'
PUBLIC	??_R2?$ctype@D@std@@8				; std::ctype<char>::`RTTI Base Class Array'
PUBLIC	??_R1A@?0A@EA@?$ctype@D@std@@8			; std::ctype<char>::`RTTI Base Class Descriptor at (0,-1,0,64)'
PUBLIC	??_R4failure@ios_base@std@@6B@			; std::ios_base::failure::`RTTI Complete Object Locator'
PUBLIC	??_R3failure@ios_base@std@@8			; std::ios_base::failure::`RTTI Class Hierarchy Descriptor'
PUBLIC	??_R2failure@ios_base@std@@8			; std::ios_base::failure::`RTTI Base Class Array'
PUBLIC	??_R1A@?0A@EA@failure@ios_base@std@@8		; std::ios_base::failure::`RTTI Base Class Descriptor at (0,-1,0,64)'
PUBLIC	??_R4?$num_put@DV?$ostreambuf_iterator@DU?$char_traits@D@std@@@std@@@std@@6B@ ; std::num_put<char,std::ostreambuf_iterator<char,std::char_traits<char> > >::`RTTI Complete Object Locator'
PUBLIC	??_R0?AV?$num_put@DV?$ostreambuf_iterator@DU?$char_traits@D@std@@@std@@@std@@@8 ; std::num_put<char,std::ostreambuf_iterator<char,std::char_traits<char> > > `RTTI Type Descriptor'
PUBLIC	??_R3?$num_put@DV?$ostreambuf_iterator@DU?$char_traits@D@std@@@std@@@std@@8 ; std::num_put<char,std::ostreambuf_iterator<char,std::char_traits<char> > >::`RTTI Class Hierarchy Descriptor'
PUBLIC	??_R2?$num_put@DV?$ostreambuf_iterator@DU?$char_traits@D@std@@@std@@@std@@8 ; std::num_put<char,std::ostreambuf_iterator<char,std::char_traits<char> > >::`RTTI Base Class Array'
PUBLIC	??_R1A@?0A@EA@?$num_put@DV?$ostreambuf_iterator@DU?$char_traits@D@std@@@std@@@std@@8 ; std::num_put<char,std::ostreambuf_iterator<char,std::char_traits<char> > >::`RTTI Base Class Descriptor at (0,-1,0,64)'
PUBLIC	??_R4?$numpunct@D@std@@6B@			; std::numpunct<char>::`RTTI Complete Object Locator'
PUBLIC	??_R0?AV?$numpunct@D@std@@@8			; std::numpunct<char> `RTTI Type Descriptor'
PUBLIC	??_R3?$numpunct@D@std@@8			; std::numpunct<char>::`RTTI Class Hierarchy Descriptor'
PUBLIC	??_R2?$numpunct@D@std@@8			; std::numpunct<char>::`RTTI Base Class Array'
PUBLIC	??_R1A@?0A@EA@?$numpunct@D@std@@8		; std::numpunct<char>::`RTTI Base Class Descriptor at (0,-1,0,64)'
PUBLIC	__real@4202a05f20000000
PUBLIC	__xmm@000000000000000f0000000000000000
PUBLIC	__xmm@7fffffffffffffff7fffffffffffffff
EXTRN	_purecall:PROC
EXTRN	??2@YAPEAX_K@Z:PROC				; operator new
EXTRN	??3@YAXPEAX_K@Z:PROC				; operator delete
EXTRN	??_V@YAXPEAX@Z:PROC				; operator delete[]
EXTRN	__std_terminate:PROC
EXTRN	_invoke_watson:PROC
EXTRN	??0_Lockit@std@@QEAA@H@Z:PROC			; std::_Lockit::_Lockit
EXTRN	??1_Lockit@std@@QEAA@XZ:PROC			; std::_Lockit::~_Lockit
EXTRN	frexp:PROC
EXTRN	calloc:PROC
EXTRN	free:PROC
EXTRN	__stdio_common_vsprintf_s:PROC
EXTRN	strcspn:PROC
EXTRN	?_Xbad_alloc@std@@YAXXZ:PROC			; std::_Xbad_alloc
EXTRN	?_Xlength_error@std@@YAXPEBD@Z:PROC		; std::_Xlength_error
EXTRN	?_Xout_of_range@std@@YAXPEBD@Z:PROC		; std::_Xout_of_range
EXTRN	?_Xruntime_error@std@@YAXPEBD@Z:PROC		; std::_Xruntime_error
EXTRN	?uncaught_exception@std@@YA_NXZ:PROC		; std::uncaught_exception
EXTRN	__std_exception_copy:PROC
EXTRN	__std_exception_destroy:PROC
EXTRN	??_Eexception@std@@UEAAPEAXI@Z:PROC		; std::exception::`vector deleting destructor'
EXTRN	??_Ebad_alloc@std@@UEAAPEAXI@Z:PROC		; std::bad_alloc::`vector deleting destructor'
EXTRN	??_Ebad_array_new_length@std@@UEAAPEAXI@Z:PROC	; std::bad_array_new_length::`vector deleting destructor'
EXTRN	??_Eruntime_error@std@@UEAAPEAXI@Z:PROC		; std::runtime_error::`vector deleting destructor'
EXTRN	??_E_System_error@std@@UEAAPEAXI@Z:PROC		; std::_System_error::`vector deleting destructor'
EXTRN	??_Esystem_error@std@@UEAAPEAXI@Z:PROC		; std::system_error::`vector deleting destructor'
EXTRN	?_Syserror_map@std@@YAPEBDH@Z:PROC		; std::_Syserror_map
EXTRN	??_E_Iostream_error_category2@std@@UEAAPEAXI@Z:PROC ; std::_Iostream_error_category2::`vector deleting destructor'
EXTRN	??_Ebad_cast@std@@UEAAPEAXI@Z:PROC		; std::bad_cast::`vector deleting destructor'
EXTRN	??_E_Facet_base@std@@UEAAPEAXI@Z:PROC		; std::_Facet_base::`vector deleting destructor'
EXTRN	?_Facet_Register@std@@YAXPEAV_Facet_base@1@@Z:PROC ; std::_Facet_Register
EXTRN	localeconv:PROC
EXTRN	_Getctype:PROC
EXTRN	_Getcvt:PROC
EXTRN	_Tolower:PROC
EXTRN	_Toupper:PROC
EXTRN	?_Locinfo_ctor@_Locinfo@std@@SAXPEAV12@PEBD@Z:PROC ; std::_Locinfo::_Locinfo_ctor
EXTRN	?_Locinfo_dtor@_Locinfo@std@@SAXPEAV12@@Z:PROC	; std::_Locinfo::_Locinfo_dtor
EXTRN	??_Efacet@locale@std@@MEAAPEAXI@Z:PROC		; std::locale::facet::`vector deleting destructor'
EXTRN	?_Getgloballocale@locale@std@@CAPEAV_Locimp@12@XZ:PROC ; std::locale::_Getgloballocale
EXTRN	??_Ectype_base@std@@UEAAPEAXI@Z:PROC		; std::ctype_base::`vector deleting destructor'
EXTRN	??_E?$ctype@D@std@@MEAAPEAXI@Z:PROC		; std::ctype<char>::`vector deleting destructor'
EXTRN	??_Efailure@ios_base@std@@UEAAPEAXI@Z:PROC	; std::ios_base::failure::`vector deleting destructor'
EXTRN	??_E?$num_put@DV?$ostreambuf_iterator@DU?$char_traits@D@std@@@std@@@std@@MEAAPEAXI@Z:PROC ; std::num_put<char,std::ostreambuf_iterator<char,std::char_traits<char> > >::`vector deleting destructor'
EXTRN	??_E?$numpunct@D@std@@MEAAPEAXI@Z:PROC		; std::numpunct<char>::`vector deleting destructor'
EXTRN	_CxxThrowException:PROC
EXTRN	__CxxFrameHandler4:PROC
EXTRN	__GSHandlerCheck:PROC
EXTRN	__GSHandlerCheck_EH4:PROC
EXTRN	__security_check_cookie:PROC
EXTRN	_dclass:PROC
EXTRN	_ldclass:PROC
EXTRN	memcpy:PROC
EXTRN	memmove:PROC
EXTRN	memset:PROC
EXTRN	strlen:PROC
EXTRN	??_7type_info@@6B@:BYTE				; type_info::`vftable'
EXTRN	?_Id_cnt@id@locale@std@@0HA:DWORD		; std::locale::id::_Id_cnt
EXTRN	?id@?$ctype@D@std@@2V0locale@2@A:QWORD		; std::ctype<char>::id
EXTRN	?cout@std@@3V?$basic_ostream@DU?$char_traits@D@std@@@1@A:BYTE ; std::cout
EXTRN	__security_cookie:QWORD
EXTRN	_fltused:DWORD
;	COMDAT ?_OptionsStorage@?1??__local_stdio_printf_options@@9@4_KA
_BSS	SEGMENT
?_OptionsStorage@?1??__local_stdio_printf_options@@9@4_KA DQ 01H DUP (?) ; `__local_stdio_printf_options'::`2'::_OptionsStorage
_BSS	ENDS
;	COMDAT ?_Psave@?$_Facetptr@V?$ctype@D@std@@@std@@2PEBVfacet@locale@2@EB
_BSS	SEGMENT
?_Psave@?$_Facetptr@V?$ctype@D@std@@@std@@2PEBVfacet@locale@2@EB DQ 01H DUP (?) ; std::_Facetptr<std::ctype<char> >::_Psave
_BSS	ENDS
;	COMDAT ?id@?$num_put@DV?$ostreambuf_iterator@DU?$char_traits@D@std@@@std@@@std@@2V0locale@2@A
_BSS	SEGMENT
?id@?$num_put@DV?$ostreambuf_iterator@DU?$char_traits@D@std@@@std@@@std@@2V0locale@2@A DQ 01H DUP (?) ; std::num_put<char,std::ostreambuf_iterator<char,std::char_traits<char> > >::id
_BSS	ENDS
;	COMDAT ?_Psave@?$_Facetptr@V?$num_put@DV?$ostreambuf_iterator@DU?$char_traits@D@std@@@std@@@std@@@std@@2PEBVfacet@locale@2@EB
_BSS	SEGMENT
?_Psave@?$_Facetptr@V?$num_put@DV?$ostreambuf_iterator@DU?$char_traits@D@std@@@std@@@std@@@std@@2PEBVfacet@locale@2@EB DQ 01H DUP (?) ; std::_Facetptr<std::num_put<char,std::ostreambuf_iterator<char,std::char_traits<char> > > >::_Psave
_BSS	ENDS
;	COMDAT ?id@?$numpunct@D@std@@2V0locale@2@A
_BSS	SEGMENT
?id@?$numpunct@D@std@@2V0locale@2@A DQ 01H DUP (?)	; std::numpunct<char>::id
_BSS	ENDS
;	COMDAT ?_Psave@?$_Facetptr@V?$numpunct@D@std@@@std@@2PEBVfacet@locale@2@EB
_BSS	SEGMENT
?_Psave@?$_Facetptr@V?$numpunct@D@std@@@std@@2PEBVfacet@locale@2@EB DQ 01H DUP (?) ; std::_Facetptr<std::numpunct<char> >::_Psave
_BSS	ENDS
;	COMDAT pdata
pdata	SEGMENT
$pdata$?fpclassify@@YAHN@Z DD imagerel $LN6
	DD	imagerel $LN6+15
	DD	imagerel $unwind$?fpclassify@@YAHN@Z
pdata	ENDS
;	COMDAT pdata
pdata	SEGMENT
$pdata$?fpclassify@@YAHO@Z DD imagerel $LN6
	DD	imagerel $LN6+15
	DD	imagerel $unwind$?fpclassify@@YAHO@Z
pdata	ENDS
;	COMDAT pdata
pdata	SEGMENT
$pdata$_vsprintf_s_l DD imagerel $LN4
	DD	imagerel $LN4+100
	DD	imagerel $unwind$_vsprintf_s_l
pdata	ENDS
;	COMDAT pdata
pdata	SEGMENT
$pdata$sprintf_s DD imagerel $LN6
	DD	imagerel $LN6+87
	DD	imagerel $unwind$sprintf_s
pdata	ENDS
;	COMDAT pdata
pdata	SEGMENT
$pdata$??0exception@std@@QEAA@QEBD@Z DD imagerel $LN6
	DD	imagerel $LN6+61
	DD	imagerel $unwind$??0exception@std@@QEAA@QEBD@Z
pdata	ENDS
;	COMDAT pdata
pdata	SEGMENT
$pdata$??0exception@std@@QEAA@AEBV01@@Z DD imagerel $LN6
	DD	imagerel $LN6+50
	DD	imagerel $unwind$??0exception@std@@QEAA@AEBV01@@Z
pdata	ENDS
;	COMDAT pdata
pdata	SEGMENT
$pdata$??_Gexception@std@@UEAAPEAXI@Z DD imagerel $LN12
	DD	imagerel $LN12+66
	DD	imagerel $unwind$??_Gexception@std@@UEAAPEAXI@Z
pdata	ENDS
;	COMDAT pdata
pdata	SEGMENT
$pdata$??0bad_alloc@std@@QEAA@AEBV01@@Z DD imagerel $LN9
	DD	imagerel $LN9+60
	DD	imagerel $unwind$??0bad_alloc@std@@QEAA@AEBV01@@Z
pdata	ENDS
;	COMDAT pdata
pdata	SEGMENT
$pdata$??_Gbad_alloc@std@@UEAAPEAXI@Z DD imagerel $LN17
	DD	imagerel $LN17+66
	DD	imagerel $unwind$??_Gbad_alloc@std@@UEAAPEAXI@Z
pdata	ENDS
;	COMDAT pdata
pdata	SEGMENT
$pdata$??0bad_array_new_length@std@@QEAA@AEBV01@@Z DD imagerel $LN14
	DD	imagerel $LN14+60
	DD	imagerel $unwind$??0bad_array_new_length@std@@QEAA@AEBV01@@Z
pdata	ENDS
;	COMDAT pdata
pdata	SEGMENT
$pdata$??_Gbad_array_new_length@std@@UEAAPEAXI@Z DD imagerel $LN22
	DD	imagerel $LN22+66
	DD	imagerel $unwind$??_Gbad_array_new_length@std@@UEAAPEAXI@Z
pdata	ENDS
;	COMDAT pdata
pdata	SEGMENT
$pdata$?copy@?$_Char_traits@DH@std@@SAPEADQEADQEBD_K@Z DD imagerel $LN6
	DD	imagerel $LN6+23
	DD	imagerel $unwind$?copy@?$_Char_traits@DH@std@@SAPEADQEADQEBD_K@Z
pdata	ENDS
;	COMDAT pdata
pdata	SEGMENT
$pdata$?move@?$_Char_traits@DH@std@@SAPEADQEADQEBD_K@Z DD imagerel $LN6
	DD	imagerel $LN6+23
	DD	imagerel $unwind$?move@?$_Char_traits@DH@std@@SAPEADQEADQEBD_K@Z
pdata	ENDS
;	COMDAT pdata
pdata	SEGMENT
$pdata$?_Throw_bad_array_new_length@std@@YAXXZ DD imagerel $LN4
	DD	imagerel $LN4+32
	DD	imagerel $unwind$?_Throw_bad_array_new_length@std@@YAXXZ
pdata	ENDS
;	COMDAT pdata
pdata	SEGMENT
$pdata$?_Adjust_manually_vector_aligned@std@@YAXAEAPEAXAEA_K@Z DD imagerel $LN7
	DD	imagerel $LN7+61
	DD	imagerel $unwind$?_Adjust_manually_vector_aligned@std@@YAXAEAPEAXAEA_K@Z
pdata	ENDS
;	COMDAT pdata
pdata	SEGMENT
$pdata$?_Xlen_string@std@@YAXXZ DD imagerel $LN4
	DD	imagerel $LN4+17
	DD	imagerel $unwind$?_Xlen_string@std@@YAXXZ
pdata	ENDS
;	COMDAT pdata
pdata	SEGMENT
$pdata$?deallocate@?$allocator@D@std@@QEAAXQEAD_K@Z DD imagerel $LN17
	DD	imagerel $LN17+80
	DD	imagerel $unwind$?deallocate@?$allocator@D@std@@QEAAXQEAD_K@Z
pdata	ENDS
;	COMDAT pdata
pdata	SEGMENT
$pdata$?_Check_offset@?$_String_val@U?$_Simple_types@D@std@@@std@@QEBAX_K@Z DD imagerel $LN7
	DD	imagerel $LN7+21
	DD	imagerel $unwind$?_Check_offset@?$_String_val@U?$_Simple_types@D@std@@@std@@QEBAX_K@Z
pdata	ENDS
;	COMDAT pdata
pdata	SEGMENT
$pdata$?_Xran@?$_String_val@U?$_Simple_types@D@std@@@std@@SAXXZ DD imagerel $LN4
	DD	imagerel $LN4+17
	DD	imagerel $unwind$?_Xran@?$_String_val@U?$_Simple_types@D@std@@@std@@SAXXZ
pdata	ENDS
;	COMDAT pdata
pdata	SEGMENT
$pdata$??0?$basic_string@DU?$char_traits@D@std@@V?$allocator@D@2@@std@@QEAA@AEBV01@@Z DD imagerel $LN56
	DD	imagerel $LN56+192
	DD	imagerel $unwind$??0?$basic_string@DU?$char_traits@D@std@@V?$allocator@D@2@@std@@QEAA@AEBV01@@Z
pdata	ENDS
;	COMDAT pdata
pdata	SEGMENT
$pdata$??0?$basic_string@DU?$char_traits@D@std@@V?$allocator@D@2@@std@@QEAA@QEBD_K@Z DD imagerel $LN18
	DD	imagerel $LN18+39
	DD	imagerel $unwind$??0?$basic_string@DU?$char_traits@D@std@@V?$allocator@D@2@@std@@QEAA@QEBD_K@Z
pdata	ENDS
;	COMDAT pdata
pdata	SEGMENT
$pdata$??0?$basic_string@DU?$char_traits@D@std@@V?$allocator@D@2@@std@@QEAA@QEBD@Z DD imagerel $LN21
	DD	imagerel $LN21+68
	DD	imagerel $unwind$??0?$basic_string@DU?$char_traits@D@std@@V?$allocator@D@2@@std@@QEAA@QEBD@Z
pdata	ENDS
;	COMDAT pdata
pdata	SEGMENT
$pdata$??0?$basic_string@DU?$char_traits@D@std@@V?$allocator@D@2@@std@@QEAA@_KD@Z DD imagerel $LN48
	DD	imagerel $LN48+104
	DD	imagerel $unwind$??0?$basic_string@DU?$char_traits@D@std@@V?$allocator@D@2@@std@@QEAA@_KD@Z
pdata	ENDS
;	COMDAT pdata
pdata	SEGMENT
$pdata$0$??0?$basic_string@DU?$char_traits@D@std@@V?$allocator@D@2@@std@@QEAA@_KD@Z DD imagerel $LN48+104
	DD	imagerel $LN48+179
	DD	imagerel $chain$0$??0?$basic_string@DU?$char_traits@D@std@@V?$allocator@D@2@@std@@QEAA@_KD@Z
pdata	ENDS
;	COMDAT pdata
pdata	SEGMENT
$pdata$1$??0?$basic_string@DU?$char_traits@D@std@@V?$allocator@D@2@@std@@QEAA@_KD@Z DD imagerel $LN48+179
	DD	imagerel $LN48+210
	DD	imagerel $chain$1$??0?$basic_string@DU?$char_traits@D@std@@V?$allocator@D@2@@std@@QEAA@_KD@Z
pdata	ENDS
;	COMDAT pdata
pdata	SEGMENT
$pdata$?_Deallocate_for_capacity@?$basic_string@DU?$char_traits@D@std@@V?$allocator@D@2@@std@@CAXAEAV?$allocator@D@2@QEAD_K@Z DD imagerel $LN21
	DD	imagerel $LN21+81
	DD	imagerel $unwind$?_Deallocate_for_capacity@?$basic_string@DU?$char_traits@D@std@@V?$allocator@D@2@@std@@CAXAEAV?$allocator@D@2@QEAD_K@Z
pdata	ENDS
;	COMDAT pdata
pdata	SEGMENT
$pdata$??4?$basic_string@DU?$char_traits@D@std@@V?$allocator@D@2@@std@@QEAAAEAV01@$$QEAV01@@Z DD imagerel $LN50
	DD	imagerel $LN50+156
	DD	imagerel $unwind$??4?$basic_string@DU?$char_traits@D@std@@V?$allocator@D@2@@std@@QEAAAEAV01@$$QEAV01@@Z
pdata	ENDS
;	COMDAT pdata
pdata	SEGMENT
$pdata$?assign@?$basic_string@DU?$char_traits@D@std@@V?$allocator@D@2@@std@@QEAAAEAV12@$$QEAV12@@Z DD imagerel $LN53
	DD	imagerel $LN53+156
	DD	imagerel $unwind$?assign@?$basic_string@DU?$char_traits@D@std@@V?$allocator@D@2@@std@@QEAAAEAV12@$$QEAV12@@Z
pdata	ENDS
;	COMDAT pdata
pdata	SEGMENT
$pdata$?append@?$basic_string@DU?$char_traits@D@std@@V?$allocator@D@2@@std@@QEAAAEAV12@QEBD_K@Z DD imagerel $LN86
	DD	imagerel $LN86+111
	DD	imagerel $unwind$?append@?$basic_string@DU?$char_traits@D@std@@V?$allocator@D@2@@std@@QEAAAEAV12@QEBD_K@Z
pdata	ENDS
;	COMDAT pdata
pdata	SEGMENT
$pdata$1$?append@?$basic_string@DU?$char_traits@D@std@@V?$allocator@D@2@@std@@QEAAAEAV12@QEBD_K@Z DD imagerel $LN86+111
	DD	imagerel $LN86+321
	DD	imagerel $chain$1$?append@?$basic_string@DU?$char_traits@D@std@@V?$allocator@D@2@@std@@QEAAAEAV12@QEBD_K@Z
pdata	ENDS
;	COMDAT pdata
pdata	SEGMENT
$pdata$2$?append@?$basic_string@DU?$char_traits@D@std@@V?$allocator@D@2@@std@@QEAAAEAV12@QEBD_K@Z DD imagerel $LN86+321
	DD	imagerel $LN86+342
	DD	imagerel $chain$2$?append@?$basic_string@DU?$char_traits@D@std@@V?$allocator@D@2@@std@@QEAAAEAV12@QEBD_K@Z
pdata	ENDS
;	COMDAT pdata
pdata	SEGMENT
$pdata$3$?append@?$basic_string@DU?$char_traits@D@std@@V?$allocator@D@2@@std@@QEAAAEAV12@QEBD_K@Z DD imagerel $LN86+342
	DD	imagerel $LN86+367
	DD	imagerel $chain$3$?append@?$basic_string@DU?$char_traits@D@std@@V?$allocator@D@2@@std@@QEAAAEAV12@QEBD_K@Z
pdata	ENDS
;	COMDAT pdata
pdata	SEGMENT
$pdata$4$?append@?$basic_string@DU?$char_traits@D@std@@V?$allocator@D@2@@std@@QEAAAEAV12@QEBD_K@Z DD imagerel $LN86+367
	DD	imagerel $LN86+373
	DD	imagerel $chain$4$?append@?$basic_string@DU?$char_traits@D@std@@V?$allocator@D@2@@std@@QEAAAEAV12@QEBD_K@Z
pdata	ENDS
;	COMDAT pdata
pdata	SEGMENT
$pdata$?append@?$basic_string@DU?$char_traits@D@std@@V?$allocator@D@2@@std@@QEAAAEAV12@QEBD@Z DD imagerel $LN8
	DD	imagerel $LN8+48
	DD	imagerel $unwind$?append@?$basic_string@DU?$char_traits@D@std@@V?$allocator@D@2@@std@@QEAAAEAV12@QEBD@Z
pdata	ENDS
;	COMDAT pdata
pdata	SEGMENT
$pdata$?append@?$basic_string@DU?$char_traits@D@std@@V?$allocator@D@2@@std@@QEAAAEAV12@_KD@Z DD imagerel $LN86
	DD	imagerel $LN86+118
	DD	imagerel $unwind$?append@?$basic_string@DU?$char_traits@D@std@@V?$allocator@D@2@@std@@QEAAAEAV12@_KD@Z
pdata	ENDS
;	COMDAT pdata
pdata	SEGMENT
$pdata$1$?append@?$basic_string@DU?$char_traits@D@std@@V?$allocator@D@2@@std@@QEAAAEAV12@_KD@Z DD imagerel $LN86+118
	DD	imagerel $LN86+328
	DD	imagerel $chain$1$?append@?$basic_string@DU?$char_traits@D@std@@V?$allocator@D@2@@std@@QEAAAEAV12@_KD@Z
pdata	ENDS
;	COMDAT pdata
pdata	SEGMENT
$pdata$2$?append@?$basic_string@DU?$char_traits@D@std@@V?$allocator@D@2@@std@@QEAAAEAV12@_KD@Z DD imagerel $LN86+328
	DD	imagerel $LN86+349
	DD	imagerel $chain$2$?append@?$basic_string@DU?$char_traits@D@std@@V?$allocator@D@2@@std@@QEAAAEAV12@_KD@Z
pdata	ENDS
;	COMDAT pdata
pdata	SEGMENT
$pdata$3$?append@?$basic_string@DU?$char_traits@D@std@@V?$allocator@D@2@@std@@QEAAAEAV12@_KD@Z DD imagerel $LN86+349
	DD	imagerel $LN86+374
	DD	imagerel $chain$3$?append@?$basic_string@DU?$char_traits@D@std@@V?$allocator@D@2@@std@@QEAAAEAV12@_KD@Z
pdata	ENDS
;	COMDAT pdata
pdata	SEGMENT
$pdata$4$?append@?$basic_string@DU?$char_traits@D@std@@V?$allocator@D@2@@std@@QEAAAEAV12@_KD@Z DD imagerel $LN86+374
	DD	imagerel $LN86+380
	DD	imagerel $chain$4$?append@?$basic_string@DU?$char_traits@D@std@@V?$allocator@D@2@@std@@QEAAAEAV12@_KD@Z
pdata	ENDS
;	COMDAT pdata
pdata	SEGMENT
$pdata$?insert@?$basic_string@DU?$char_traits@D@std@@V?$allocator@D@2@@std@@QEAAAEAV12@_K0D@Z DD imagerel $LN28
	DD	imagerel $LN28+53
	DD	imagerel $unwind$?insert@?$basic_string@DU?$char_traits@D@std@@V?$allocator@D@2@@std@@QEAAAEAV12@_K0D@Z
pdata	ENDS
;	COMDAT pdata
pdata	SEGMENT
$pdata$0$?insert@?$basic_string@DU?$char_traits@D@std@@V?$allocator@D@2@@std@@QEAAAEAV12@_K0D@Z DD imagerel $LN28+53
	DD	imagerel $LN28+137
	DD	imagerel $chain$0$?insert@?$basic_string@DU?$char_traits@D@std@@V?$allocator@D@2@@std@@QEAAAEAV12@_K0D@Z
pdata	ENDS
;	COMDAT pdata
pdata	SEGMENT
$pdata$1$?insert@?$basic_string@DU?$char_traits@D@std@@V?$allocator@D@2@@std@@QEAAAEAV12@_K0D@Z DD imagerel $LN28+137
	DD	imagerel $LN28+186
	DD	imagerel $chain$1$?insert@?$basic_string@DU?$char_traits@D@std@@V?$allocator@D@2@@std@@QEAAAEAV12@_K0D@Z
pdata	ENDS
;	COMDAT pdata
pdata	SEGMENT
$pdata$?_Tidy_deallocate@?$basic_string@DU?$char_traits@D@std@@V?$allocator@D@2@@std@@AEAAXXZ DD imagerel $LN32
	DD	imagerel $LN32+113
	DD	imagerel $unwind$?_Tidy_deallocate@?$basic_string@DU?$char_traits@D@std@@V?$allocator@D@2@@std@@AEAAXXZ
pdata	ENDS
;	COMDAT pdata
pdata	SEGMENT
$pdata$??0runtime_error@std@@QEAA@AEBV?$basic_string@DU?$char_traits@D@std@@V?$allocator@D@2@@1@@Z DD imagerel $LN20
	DD	imagerel $LN20+81
	DD	imagerel $unwind$??0runtime_error@std@@QEAA@AEBV?$basic_string@DU?$char_traits@D@std@@V?$allocator@D@2@@1@@Z
pdata	ENDS
;	COMDAT pdata
pdata	SEGMENT
$pdata$??0runtime_error@std@@QEAA@AEBV01@@Z DD imagerel $LN9
	DD	imagerel $LN9+60
	DD	imagerel $unwind$??0runtime_error@std@@QEAA@AEBV01@@Z
pdata	ENDS
;	COMDAT pdata
pdata	SEGMENT
$pdata$??_Gruntime_error@std@@UEAAPEAXI@Z DD imagerel $LN17
	DD	imagerel $LN17+66
	DD	imagerel $unwind$??_Gruntime_error@std@@UEAAPEAXI@Z
pdata	ENDS
;	COMDAT pdata
pdata	SEGMENT
$pdata$?equivalent@error_category@std@@UEBA_NHAEBVerror_condition@2@@Z DD imagerel $LN16
	DD	imagerel $LN16+63
	DD	imagerel $unwind$?equivalent@error_category@std@@UEBA_NHAEBVerror_condition@2@@Z
pdata	ENDS
;	COMDAT pdata
pdata	SEGMENT
$pdata$?message@error_code@std@@QEBA?AV?$basic_string@DU?$char_traits@D@std@@V?$allocator@D@2@@2@XZ DD imagerel $LN7
	DD	imagerel $LN7+31
	DD	imagerel $unwind$?message@error_code@std@@QEBA?AV?$basic_string@DU?$char_traits@D@std@@V?$allocator@D@2@@2@XZ
pdata	ENDS
;	COMDAT pdata
pdata	SEGMENT
$pdata$?_Makestr@_System_error@std@@CA?AV?$basic_string@DU?$char_traits@D@std@@V?$allocator@D@2@@2@Verror_code@2@V32@@Z DD imagerel $LN125
	DD	imagerel $LN125+278
	DD	imagerel $unwind$?_Makestr@_System_error@std@@CA?AV?$basic_string@DU?$char_traits@D@std@@V?$allocator@D@2@@2@Verror_code@2@V32@@Z
pdata	ENDS
;	COMDAT pdata
pdata	SEGMENT
$pdata$??0_System_error@std@@IEAA@Verror_code@1@AEBV?$basic_string@DU?$char_traits@D@std@@V?$allocator@D@2@@1@@Z DD imagerel $LN226
	DD	imagerel $LN226+620
	DD	imagerel $unwind$??0_System_error@std@@IEAA@Verror_code@1@AEBV?$basic_string@DU?$char_traits@D@std@@V?$allocator@D@2@@1@@Z
pdata	ENDS
;	COMDAT pdata
pdata	SEGMENT
$pdata$??0_System_error@std@@QEAA@AEBV01@@Z DD imagerel $LN14
	DD	imagerel $LN14+77
	DD	imagerel $unwind$??0_System_error@std@@QEAA@AEBV01@@Z
pdata	ENDS
;	COMDAT pdata
pdata	SEGMENT
$pdata$??_G_System_error@std@@UEAAPEAXI@Z DD imagerel $LN22
	DD	imagerel $LN22+66
	DD	imagerel $unwind$??_G_System_error@std@@UEAAPEAXI@Z
pdata	ENDS
;	COMDAT pdata
pdata	SEGMENT
$pdata$??0system_error@std@@QEAA@Verror_code@1@PEBD@Z DD imagerel $LN59
	DD	imagerel $LN59+222
	DD	imagerel $unwind$??0system_error@std@@QEAA@Verror_code@1@PEBD@Z
pdata	ENDS
;	COMDAT pdata
pdata	SEGMENT
$pdata$??0system_error@std@@QEAA@AEBV01@@Z DD imagerel $LN19
	DD	imagerel $LN19+87
	DD	imagerel $unwind$??0system_error@std@@QEAA@AEBV01@@Z
pdata	ENDS
;	COMDAT pdata
pdata	SEGMENT
$pdata$??_Gsystem_error@std@@UEAAPEAXI@Z DD imagerel $LN27
	DD	imagerel $LN27+66
	DD	imagerel $unwind$??_Gsystem_error@std@@UEAAPEAXI@Z
pdata	ENDS
;	COMDAT pdata
pdata	SEGMENT
$pdata$?message@_Iostream_error_category2@std@@UEBA?AV?$basic_string@DU?$char_traits@D@std@@V?$allocator@D@2@@2@H@Z DD imagerel $LN70
	DD	imagerel $LN70+182
	DD	imagerel $unwind$?message@_Iostream_error_category2@std@@UEBA?AV?$basic_string@DU?$char_traits@D@std@@V?$allocator@D@2@@2@H@Z
pdata	ENDS
;	COMDAT pdata
pdata	SEGMENT
$pdata$??_G_Iostream_error_category2@std@@UEAAPEAXI@Z DD imagerel $LN9
	DD	imagerel $LN9+33
	DD	imagerel $unwind$??_G_Iostream_error_category2@std@@UEAAPEAXI@Z
pdata	ENDS
;	COMDAT pdata
pdata	SEGMENT
$pdata$??0bad_cast@std@@QEAA@AEBV01@@Z DD imagerel $LN9
	DD	imagerel $LN9+60
	DD	imagerel $unwind$??0bad_cast@std@@QEAA@AEBV01@@Z
pdata	ENDS
;	COMDAT pdata
pdata	SEGMENT
$pdata$??_Gbad_cast@std@@UEAAPEAXI@Z DD imagerel $LN17
	DD	imagerel $LN17+66
	DD	imagerel $unwind$??_Gbad_cast@std@@UEAAPEAXI@Z
pdata	ENDS
;	COMDAT pdata
pdata	SEGMENT
$pdata$?_Throw_bad_cast@std@@YAXXZ DD imagerel $LN4
	DD	imagerel $LN4+32
	DD	imagerel $unwind$?_Throw_bad_cast@std@@YAXXZ
pdata	ENDS
;	COMDAT pdata
pdata	SEGMENT
$pdata$??_G_Facet_base@std@@UEAAPEAXI@Z DD imagerel $LN9
	DD	imagerel $LN9+43
	DD	imagerel $unwind$??_G_Facet_base@std@@UEAAPEAXI@Z
pdata	ENDS
;	COMDAT pdata
pdata	SEGMENT
$pdata$??0_Locinfo@std@@QEAA@PEBD@Z DD imagerel $LN32
	DD	imagerel $LN32+119
	DD	imagerel $unwind$??0_Locinfo@std@@QEAA@PEBD@Z
pdata	ENDS
;	COMDAT pdata
pdata	SEGMENT
$pdata$??1_Locinfo@std@@QEAA@XZ DD imagerel $LN48
	DD	imagerel $LN48+146
	DD	imagerel $unwind$??1_Locinfo@std@@QEAA@XZ
pdata	ENDS
;	COMDAT pdata
pdata	SEGMENT
$pdata$?_Getctype@_Locinfo@std@@QEBA?AU_Ctypevec@@XZ DD imagerel $LN4
	DD	imagerel $LN4+42
	DD	imagerel $unwind$?_Getctype@_Locinfo@std@@QEBA?AU_Ctypevec@@XZ
pdata	ENDS
;	COMDAT pdata
pdata	SEGMENT
$pdata$?_Getcvt@_Locinfo@std@@QEBA?AU_Cvtvec@@XZ DD imagerel $LN4
	DD	imagerel $LN4+58
	DD	imagerel $unwind$?_Getcvt@_Locinfo@std@@QEBA?AU_Cvtvec@@XZ
pdata	ENDS
;	COMDAT pdata
pdata	SEGMENT
$pdata$??1?$_Yarn@D@std@@QEAA@XZ DD imagerel $LN12
	DD	imagerel $LN12+35
	DD	imagerel $unwind$??1?$_Yarn@D@std@@QEAA@XZ
pdata	ENDS
;	COMDAT pdata
pdata	SEGMENT
$pdata$?_Tidy@?$_Yarn@D@std@@AEAAXXZ DD imagerel $LN9
	DD	imagerel $LN9+35
	DD	imagerel $unwind$?_Tidy@?$_Yarn@D@std@@AEAAXXZ
pdata	ENDS
;	COMDAT pdata
pdata	SEGMENT
$pdata$??1?$_Yarn@_W@std@@QEAA@XZ DD imagerel $LN12
	DD	imagerel $LN12+35
	DD	imagerel $unwind$??1?$_Yarn@_W@std@@QEAA@XZ
pdata	ENDS
;	COMDAT pdata
pdata	SEGMENT
$pdata$?_Tidy@?$_Yarn@_W@std@@AEAAXXZ DD imagerel $LN9
	DD	imagerel $LN9+35
	DD	imagerel $unwind$?_Tidy@?$_Yarn@_W@std@@AEAAXXZ
pdata	ENDS
;	COMDAT pdata
pdata	SEGMENT
$pdata$??_Gfacet@locale@std@@MEAAPEAXI@Z DD imagerel $LN9
	DD	imagerel $LN9+43
	DD	imagerel $unwind$??_Gfacet@locale@std@@MEAAPEAXI@Z
pdata	ENDS
;	COMDAT pdata
pdata	SEGMENT
$pdata$??0locale@std@@QEAA@AEBV01@@Z DD imagerel $LN6
	DD	imagerel $LN6+32
	DD	imagerel $unwind$??0locale@std@@QEAA@AEBV01@@Z
pdata	ENDS
;	COMDAT pdata
pdata	SEGMENT
$pdata$??1locale@std@@QEAA@XZ DD imagerel $LN9
	DD	imagerel $LN9+50
	DD	imagerel $unwind$??1locale@std@@QEAA@XZ
pdata	ENDS
;	COMDAT pdata
pdata	SEGMENT
$pdata$?_Getfacet@locale@std@@QEBAPEBVfacet@12@_K@Z DD imagerel $LN13
	DD	imagerel $LN13+97
	DD	imagerel $unwind$?_Getfacet@locale@std@@QEBAPEBVfacet@12@_K@Z
pdata	ENDS
;	COMDAT pdata
pdata	SEGMENT
$pdata$??_Gctype_base@std@@UEAAPEAXI@Z DD imagerel $LN9
	DD	imagerel $LN9+43
	DD	imagerel $unwind$??_Gctype_base@std@@UEAAPEAXI@Z
pdata	ENDS
;	COMDAT pdata
pdata	SEGMENT
$pdata$??0?$ctype@D@std@@QEAA@AEBV_Locinfo@1@_K@Z DD imagerel $LN23
	DD	imagerel $LN23+57
	DD	imagerel $unwind$??0?$ctype@D@std@@QEAA@AEBV_Locinfo@1@_K@Z
pdata	ENDS
;	COMDAT pdata
pdata	SEGMENT
$pdata$?_Getcat@?$ctype@D@std@@SA_KPEAPEBVfacet@locale@2@PEBV42@@Z DD imagerel $LN118
	DD	imagerel $LN118+438
	DD	imagerel $unwind$?_Getcat@?$ctype@D@std@@SA_KPEAPEBVfacet@locale@2@PEBV42@@Z
pdata	ENDS
;	COMDAT pdata
pdata	SEGMENT
$pdata$?dtor$0@?0??_Getcat@?$ctype@D@std@@SA_KPEAPEBVfacet@locale@2@PEBV42@@Z@4HA DD imagerel ?dtor$0@?0??_Getcat@?$ctype@D@std@@SA_KPEAPEBVfacet@locale@2@PEBV42@@Z@4HA
	DD	imagerel ?dtor$0@?0??_Getcat@?$ctype@D@std@@SA_KPEAPEBVfacet@locale@2@PEBV42@@Z@4HA+32
	DD	imagerel $unwind$?dtor$0@?0??_Getcat@?$ctype@D@std@@SA_KPEAPEBVfacet@locale@2@PEBV42@@Z@4HA
pdata	ENDS
;	COMDAT pdata
pdata	SEGMENT
$pdata$??1?$ctype@D@std@@MEAA@XZ DD imagerel $LN15
	DD	imagerel $LN15+73
	DD	imagerel $unwind$??1?$ctype@D@std@@MEAA@XZ
pdata	ENDS
;	COMDAT pdata
pdata	SEGMENT
$pdata$?_Init@?$ctype@D@std@@IEAAXAEBV_Locinfo@2@@Z DD imagerel $LN6
	DD	imagerel $LN6+40
	DD	imagerel $unwind$?_Init@?$ctype@D@std@@IEAAXAEBV_Locinfo@2@@Z
pdata	ENDS
;	COMDAT pdata
pdata	SEGMENT
$pdata$?_Tidy@?$ctype@D@std@@IEAAXXZ DD imagerel $LN12
	DD	imagerel $LN12+64
	DD	imagerel $unwind$?_Tidy@?$ctype@D@std@@IEAAXXZ
pdata	ENDS
;	COMDAT pdata
pdata	SEGMENT
$pdata$?do_tolower@?$ctype@D@std@@MEBAPEBDPEADPEBD@Z DD imagerel $LN15
	DD	imagerel $LN15+21
	DD	imagerel $unwind$?do_tolower@?$ctype@D@std@@MEBAPEBDPEADPEBD@Z
pdata	ENDS
;	COMDAT pdata
pdata	SEGMENT
$pdata$0$?do_tolower@?$ctype@D@std@@MEBAPEBDPEADPEBD@Z DD imagerel $LN15+21
	DD	imagerel $LN15+58
	DD	imagerel $chain$0$?do_tolower@?$ctype@D@std@@MEBAPEBDPEADPEBD@Z
pdata	ENDS
;	COMDAT pdata
pdata	SEGMENT
$pdata$1$?do_tolower@?$ctype@D@std@@MEBAPEBDPEADPEBD@Z DD imagerel $LN15+58
	DD	imagerel $LN15+72
	DD	imagerel $chain$1$?do_tolower@?$ctype@D@std@@MEBAPEBDPEADPEBD@Z
pdata	ENDS
;	COMDAT pdata
pdata	SEGMENT
$pdata$?do_toupper@?$ctype@D@std@@MEBAPEBDPEADPEBD@Z DD imagerel $LN15
	DD	imagerel $LN15+21
	DD	imagerel $unwind$?do_toupper@?$ctype@D@std@@MEBAPEBDPEADPEBD@Z
pdata	ENDS
;	COMDAT pdata
pdata	SEGMENT
$pdata$0$?do_toupper@?$ctype@D@std@@MEBAPEBDPEADPEBD@Z DD imagerel $LN15+21
	DD	imagerel $LN15+58
	DD	imagerel $chain$0$?do_toupper@?$ctype@D@std@@MEBAPEBDPEADPEBD@Z
pdata	ENDS
;	COMDAT pdata
pdata	SEGMENT
$pdata$1$?do_toupper@?$ctype@D@std@@MEBAPEBDPEADPEBD@Z DD imagerel $LN15+58
	DD	imagerel $LN15+72
	DD	imagerel $chain$1$?do_toupper@?$ctype@D@std@@MEBAPEBDPEADPEBD@Z
pdata	ENDS
;	COMDAT pdata
pdata	SEGMENT
$pdata$?do_widen@?$ctype@D@std@@MEBAPEBDPEBD0PEAD@Z DD imagerel $LN4
	DD	imagerel $LN4+29
	DD	imagerel $unwind$?do_widen@?$ctype@D@std@@MEBAPEBDPEBD0PEAD@Z
pdata	ENDS
;	COMDAT pdata
pdata	SEGMENT
$pdata$?do_narrow@?$ctype@D@std@@MEBAPEBDPEBD0DPEAD@Z DD imagerel $LN4
	DD	imagerel $LN4+31
	DD	imagerel $unwind$?do_narrow@?$ctype@D@std@@MEBAPEBDPEBD0DPEAD@Z
pdata	ENDS
;	COMDAT pdata
pdata	SEGMENT
$pdata$??_G?$ctype@D@std@@MEAAPEAXI@Z DD imagerel $LN23
	DD	imagerel $LN23+106
	DD	imagerel $unwind$??_G?$ctype@D@std@@MEAAPEAXI@Z
pdata	ENDS
;	COMDAT pdata
pdata	SEGMENT
$pdata$??$use_facet@V?$ctype@D@std@@@std@@YAAEBV?$ctype@D@0@AEBVlocale@0@@Z DD imagerel $LN49
	DD	imagerel $LN49+273
	DD	imagerel $unwind$??$use_facet@V?$ctype@D@std@@@std@@YAAEBV?$ctype@D@0@AEBVlocale@0@@Z
pdata	ENDS
;	COMDAT pdata
pdata	SEGMENT
$pdata$??0failure@ios_base@std@@QEAA@PEBDAEBVerror_code@2@@Z DD imagerel $LN63
	DD	imagerel $LN63+245
	DD	imagerel $unwind$??0failure@ios_base@std@@QEAA@PEBDAEBVerror_code@2@@Z
pdata	ENDS
;	COMDAT pdata
pdata	SEGMENT
$pdata$??0failure@ios_base@std@@QEAA@AEBV012@@Z DD imagerel $LN24
	DD	imagerel $LN24+87
	DD	imagerel $unwind$??0failure@ios_base@std@@QEAA@AEBV012@@Z
pdata	ENDS
;	COMDAT pdata
pdata	SEGMENT
$pdata$??_Gfailure@ios_base@std@@UEAAPEAXI@Z DD imagerel $LN32
	DD	imagerel $LN32+66
	DD	imagerel $unwind$??_Gfailure@ios_base@std@@UEAAPEAXI@Z
pdata	ENDS
;	COMDAT pdata
pdata	SEGMENT
$pdata$?clear@ios_base@std@@QEAAXH_N@Z DD imagerel $LN15
	DD	imagerel $LN15+130
	DD	imagerel $unwind$?clear@ios_base@std@@QEAAXH_N@Z
pdata	ENDS
;	COMDAT pdata
pdata	SEGMENT
$pdata$?getloc@ios_base@std@@QEBA?AVlocale@2@XZ DD imagerel $LN9
	DD	imagerel $LN9+36
	DD	imagerel $unwind$?getloc@ios_base@std@@QEBA?AVlocale@2@XZ
pdata	ENDS
;	COMDAT pdata
pdata	SEGMENT
$pdata$?printBitboard@@YAX_KDD@Z DD imagerel $LN42
	DD	imagerel $LN42+552
	DD	imagerel $unwind$?printBitboard@@YAX_KDD@Z
pdata	ENDS
;	COMDAT pdata
pdata	SEGMENT
$pdata$?_Osfx@?$basic_ostream@DU?$char_traits@D@std@@@std@@QEAAXXZ DD imagerel $LN35
	DD	imagerel $LN35+177
	DD	imagerel $unwind$?_Osfx@?$basic_ostream@DU?$char_traits@D@std@@@std@@QEAAXXZ
pdata	ENDS
;	COMDAT pdata
pdata	SEGMENT
$pdata$?catch$0@?0??_Osfx@?$basic_ostream@DU?$char_traits@D@std@@@std@@QEAAXXZ@4HA DD imagerel ?catch$0@?0??_Osfx@?$basic_ostream@DU?$char_traits@D@std@@@std@@QEAAXXZ@4HA
	DD	imagerel ?catch$0@?0??_Osfx@?$basic_ostream@DU?$char_traits@D@std@@@std@@QEAAXXZ@4HA+30
	DD	imagerel $unwind$?catch$0@?0??_Osfx@?$basic_ostream@DU?$char_traits@D@std@@@std@@QEAAXXZ@4HA
pdata	ENDS
;	COMDAT pdata
pdata	SEGMENT
$pdata$??6?$basic_ostream@DU?$char_traits@D@std@@@std@@QEAAAEAV01@H@Z DD imagerel $LN141
	DD	imagerel $LN141+769
	DD	imagerel $unwind$??6?$basic_ostream@DU?$char_traits@D@std@@@std@@QEAAAEAV01@H@Z
pdata	ENDS
;	COMDAT pdata
pdata	SEGMENT
$pdata$?catch$8@?0???6?$basic_ostream@DU?$char_traits@D@std@@@std@@QEAAAEAV01@H@Z@4HA DD imagerel ?catch$8@?0???6?$basic_ostream@DU?$char_traits@D@std@@@std@@QEAAAEAV01@H@Z@4HA
	DD	imagerel ?catch$8@?0???6?$basic_ostream@DU?$char_traits@D@std@@@std@@QEAAAEAV01@H@Z@4HA+91
	DD	imagerel $unwind$?catch$8@?0???6?$basic_ostream@DU?$char_traits@D@std@@@std@@QEAAAEAV01@H@Z@4HA
pdata	ENDS
;	COMDAT pdata
pdata	SEGMENT
$pdata$?flush@?$basic_ostream@DU?$char_traits@D@std@@@std@@QEAAAEAV12@XZ DD imagerel $LN98
	DD	imagerel $LN98+321
	DD	imagerel $unwind$?flush@?$basic_ostream@DU?$char_traits@D@std@@@std@@QEAAAEAV12@XZ
pdata	ENDS
;	COMDAT pdata
pdata	SEGMENT
$pdata$?catch$10@?0??flush@?$basic_ostream@DU?$char_traits@D@std@@@std@@QEAAAEAV12@XZ@4HA DD imagerel ?catch$10@?0??flush@?$basic_ostream@DU?$char_traits@D@std@@@std@@QEAAAEAV12@XZ@4HA
	DD	imagerel ?catch$10@?0??flush@?$basic_ostream@DU?$char_traits@D@std@@@std@@QEAAAEAV12@XZ@4HA+91
	DD	imagerel $unwind$?catch$10@?0??flush@?$basic_ostream@DU?$char_traits@D@std@@@std@@QEAAAEAV12@XZ@4HA
pdata	ENDS
;	COMDAT pdata
pdata	SEGMENT
$pdata$??$?6U?$char_traits@D@std@@@std@@YAAEAV?$basic_ostream@DU?$char_traits@D@std@@@0@AEAV10@PEBD@Z DD imagerel $LN150
	DD	imagerel $LN150+729
	DD	imagerel $unwind$??$?6U?$char_traits@D@std@@@std@@YAAEAV?$basic_ostream@DU?$char_traits@D@std@@@0@AEAV10@PEBD@Z
pdata	ENDS
;	COMDAT pdata
pdata	SEGMENT
$pdata$?catch$4@?0???$?6U?$char_traits@D@std@@@std@@YAAEAV?$basic_ostream@DU?$char_traits@D@std@@@0@AEAV10@PEBD@Z@4HA DD imagerel ?catch$4@?0???$?6U?$char_traits@D@std@@@std@@YAAEAV?$basic_ostream@DU?$char_traits@D@std@@@0@AEAV10@PEBD@Z@4HA
	DD	imagerel ?catch$4@?0???$?6U?$char_traits@D@std@@@std@@YAAEAV?$basic_ostream@DU?$char_traits@D@std@@@0@AEAV10@PEBD@Z@4HA+91
	DD	imagerel $unwind$?catch$4@?0???$?6U?$char_traits@D@std@@@std@@YAAEAV?$basic_ostream@DU?$char_traits@D@std@@@0@AEAV10@PEBD@Z@4HA
pdata	ENDS
;	COMDAT pdata
pdata	SEGMENT
$pdata$??$?6U?$char_traits@D@std@@@std@@YAAEAV?$basic_ostream@DU?$char_traits@D@std@@@0@AEAV10@D@Z DD imagerel $LN170
	DD	imagerel $LN170+764
	DD	imagerel $unwind$??$?6U?$char_traits@D@std@@@std@@YAAEAV?$basic_ostream@DU?$char_traits@D@std@@@0@AEAV10@D@Z
pdata	ENDS
;	COMDAT pdata
pdata	SEGMENT
$pdata$?catch$4@?0???$?6U?$char_traits@D@std@@@std@@YAAEAV?$basic_ostream@DU?$char_traits@D@std@@@0@AEAV10@D@Z@4HA DD imagerel ?catch$4@?0???$?6U?$char_traits@D@std@@@std@@YAAEAV?$basic_ostream@DU?$char_traits@D@std@@@0@AEAV10@D@Z@4HA
	DD	imagerel ?catch$4@?0???$?6U?$char_traits@D@std@@@std@@YAAEAV?$basic_ostream@DU?$char_traits@D@std@@@0@AEAV10@D@Z@4HA+91
	DD	imagerel $unwind$?catch$4@?0???$?6U?$char_traits@D@std@@@std@@YAAEAV?$basic_ostream@DU?$char_traits@D@std@@@0@AEAV10@D@Z@4HA
pdata	ENDS
;	COMDAT pdata
pdata	SEGMENT
$pdata$??$_Get_index@$0A@@id@locale@std@@QEAA_KXZ DD imagerel $LN11
	DD	imagerel $LN11+80
	DD	imagerel $unwind$??$_Get_index@$0A@@id@locale@std@@QEAA_KXZ
pdata	ENDS
;	COMDAT pdata
pdata	SEGMENT
$pdata$??0_Sentry_base@?$basic_ostream@DU?$char_traits@D@std@@@std@@QEAA@AEAV12@@Z DD imagerel $LN7
	DD	imagerel $LN7+44
	DD	imagerel $unwind$??0_Sentry_base@?$basic_ostream@DU?$char_traits@D@std@@@std@@QEAA@AEAV12@@Z
pdata	ENDS
;	COMDAT pdata
pdata	SEGMENT
$pdata$??1_Sentry_base@?$basic_ostream@DU?$char_traits@D@std@@@std@@QEAA@XZ DD imagerel $LN7
	DD	imagerel $LN7+36
	DD	imagerel $unwind$??1_Sentry_base@?$basic_ostream@DU?$char_traits@D@std@@@std@@QEAA@XZ
pdata	ENDS
;	COMDAT pdata
pdata	SEGMENT
$pdata$??0sentry@?$basic_ostream@DU?$char_traits@D@std@@@std@@QEAA@AEAV12@@Z DD imagerel $LN18
	DD	imagerel $LN18+122
	DD	imagerel $unwind$??0sentry@?$basic_ostream@DU?$char_traits@D@std@@@std@@QEAA@AEAV12@@Z
pdata	ENDS
;	COMDAT pdata
pdata	SEGMENT
$pdata$??1sentry@?$basic_ostream@DU?$char_traits@D@std@@@std@@QEAA@XZ DD imagerel $LN14
	DD	imagerel $LN14+60
	DD	imagerel $unwind$??1sentry@?$basic_ostream@DU?$char_traits@D@std@@@std@@QEAA@XZ
pdata	ENDS
;	COMDAT pdata
pdata	SEGMENT
$pdata$??$_Construct@$00PEBD@?$basic_string@DU?$char_traits@D@std@@V?$allocator@D@2@@std@@AEAAXQEBD_K@Z DD imagerel $LN32
	DD	imagerel $LN32+81
	DD	imagerel $unwind$??$_Construct@$00PEBD@?$basic_string@DU?$char_traits@D@std@@V?$allocator@D@2@@std@@AEAAXQEBD_K@Z
pdata	ENDS
;	COMDAT pdata
pdata	SEGMENT
$pdata$0$??$_Construct@$00PEBD@?$basic_string@DU?$char_traits@D@std@@V?$allocator@D@2@@std@@AEAAXQEBD_K@Z DD imagerel $LN32+81
	DD	imagerel $LN32+156
	DD	imagerel $chain$0$??$_Construct@$00PEBD@?$basic_string@DU?$char_traits@D@std@@V?$allocator@D@2@@std@@AEAAXQEBD_K@Z
pdata	ENDS
;	COMDAT pdata
pdata	SEGMENT
$pdata$1$??$_Construct@$00PEBD@?$basic_string@DU?$char_traits@D@std@@V?$allocator@D@2@@std@@AEAAXQEBD_K@Z DD imagerel $LN32+156
	DD	imagerel $LN32+184
	DD	imagerel $chain$1$??$_Construct@$00PEBD@?$basic_string@DU?$char_traits@D@std@@V?$allocator@D@2@@std@@AEAAXQEBD_K@Z
pdata	ENDS
;	COMDAT pdata
pdata	SEGMENT
$pdata$??$_Construct@$01PEBD@?$basic_string@DU?$char_traits@D@std@@V?$allocator@D@2@@std@@AEAAXQEBD_K@Z DD imagerel $LN32
	DD	imagerel $LN32+159
	DD	imagerel $unwind$??$_Construct@$01PEBD@?$basic_string@DU?$char_traits@D@std@@V?$allocator@D@2@@std@@AEAAXQEBD_K@Z
pdata	ENDS
;	COMDAT pdata
pdata	SEGMENT
$pdata$??$use_facet@V?$num_put@DV?$ostreambuf_iterator@DU?$char_traits@D@std@@@std@@@std@@@std@@YAAEBV?$num_put@DV?$ostreambuf_iterator@DU?$char_traits@D@std@@@std@@@0@AEBVlocale@0@@Z DD imagerel $LN49
	DD	imagerel $LN49+273
	DD	imagerel $unwind$??$use_facet@V?$num_put@DV?$ostreambuf_iterator@DU?$char_traits@D@std@@@std@@@std@@@std@@YAAEBV?$num_put@DV?$ostreambuf_iterator@DU?$char_traits@D@std@@@std@@@0@AEBVlocale@0@@Z
pdata	ENDS
;	COMDAT pdata
pdata	SEGMENT
$pdata$?_Getcat@?$num_put@DV?$ostreambuf_iterator@DU?$char_traits@D@std@@@std@@@std@@SA_KPEAPEBVfacet@locale@2@PEBV42@@Z DD imagerel $LN109
	DD	imagerel $LN109+414
	DD	imagerel $unwind$?_Getcat@?$num_put@DV?$ostreambuf_iterator@DU?$char_traits@D@std@@@std@@@std@@SA_KPEAPEBVfacet@locale@2@PEBV42@@Z
pdata	ENDS
;	COMDAT pdata
pdata	SEGMENT
$pdata$?dtor$0@?0??_Getcat@?$num_put@DV?$ostreambuf_iterator@DU?$char_traits@D@std@@@std@@@std@@SA_KPEAPEBVfacet@locale@2@PEBV42@@Z@4HA DD imagerel ?dtor$0@?0??_Getcat@?$num_put@DV?$ostreambuf_iterator@DU?$char_traits@D@std@@@std@@@std@@SA_KPEAPEBVfacet@locale@2@PEBV42@@Z@4HA
	DD	imagerel ?dtor$0@?0??_Getcat@?$num_put@DV?$ostreambuf_iterator@DU?$char_traits@D@std@@@std@@@std@@SA_KPEAPEBVfacet@locale@2@PEBV42@@Z@4HA+32
	DD	imagerel $unwind$?dtor$0@?0??_Getcat@?$num_put@DV?$ostreambuf_iterator@DU?$char_traits@D@std@@@std@@@std@@SA_KPEAPEBVfacet@locale@2@PEBV42@@Z@4HA
pdata	ENDS
;	COMDAT pdata
pdata	SEGMENT
$pdata$?put@?$num_put@DV?$ostreambuf_iterator@DU?$char_traits@D@std@@@std@@@std@@QEBA?AV?$ostreambuf_iterator@DU?$char_traits@D@std@@@2@V32@AEAVios_base@2@DJ@Z DD imagerel $LN4
	DD	imagerel $LN4+59
	DD	imagerel $unwind$?put@?$num_put@DV?$ostreambuf_iterator@DU?$char_traits@D@std@@@std@@@std@@QEBA?AV?$ostreambuf_iterator@DU?$char_traits@D@std@@@2@V32@AEAVios_base@2@DJ@Z
pdata	ENDS
;	COMDAT pdata
pdata	SEGMENT
$pdata$?do_put@?$num_put@DV?$ostreambuf_iterator@DU?$char_traits@D@std@@@std@@@std@@MEBA?AV?$ostreambuf_iterator@DU?$char_traits@D@std@@@2@V32@AEAVios_base@2@D_N@Z DD imagerel $LN330
	DD	imagerel $LN330+723
	DD	imagerel $unwind$?do_put@?$num_put@DV?$ostreambuf_iterator@DU?$char_traits@D@std@@@std@@@std@@MEBA?AV?$ostreambuf_iterator@DU?$char_traits@D@std@@@2@V32@AEAVios_base@2@D_N@Z
pdata	ENDS
;	COMDAT pdata
pdata	SEGMENT
$pdata$?do_put@?$num_put@DV?$ostreambuf_iterator@DU?$char_traits@D@std@@@std@@@std@@MEBA?AV?$ostreambuf_iterator@DU?$char_traits@D@std@@@2@V32@AEAVios_base@2@DJ@Z DD imagerel $LN18
	DD	imagerel $LN18+252
	DD	imagerel $unwind$?do_put@?$num_put@DV?$ostreambuf_iterator@DU?$char_traits@D@std@@@std@@@std@@MEBA?AV?$ostreambuf_iterator@DU?$char_traits@D@std@@@2@V32@AEAVios_base@2@DJ@Z
pdata	ENDS
;	COMDAT pdata
pdata	SEGMENT
$pdata$?do_put@?$num_put@DV?$ostreambuf_iterator@DU?$char_traits@D@std@@@std@@@std@@MEBA?AV?$ostreambuf_iterator@DU?$char_traits@D@std@@@2@V32@AEAVios_base@2@DK@Z DD imagerel $LN18
	DD	imagerel $LN18+252
	DD	imagerel $unwind$?do_put@?$num_put@DV?$ostreambuf_iterator@DU?$char_traits@D@std@@@std@@@std@@MEBA?AV?$ostreambuf_iterator@DU?$char_traits@D@std@@@2@V32@AEAVios_base@2@DK@Z
pdata	ENDS
;	COMDAT pdata
pdata	SEGMENT
$pdata$?do_put@?$num_put@DV?$ostreambuf_iterator@DU?$char_traits@D@std@@@std@@@std@@MEBA?AV?$ostreambuf_iterator@DU?$char_traits@D@std@@@2@V32@AEAVios_base@2@D_J@Z DD imagerel $LN18
	DD	imagerel $LN18+258
	DD	imagerel $unwind$?do_put@?$num_put@DV?$ostreambuf_iterator@DU?$char_traits@D@std@@@std@@@std@@MEBA?AV?$ostreambuf_iterator@DU?$char_traits@D@std@@@2@V32@AEAVios_base@2@D_J@Z
pdata	ENDS
;	COMDAT pdata
pdata	SEGMENT
$pdata$?do_put@?$num_put@DV?$ostreambuf_iterator@DU?$char_traits@D@std@@@std@@@std@@MEBA?AV?$ostreambuf_iterator@DU?$char_traits@D@std@@@2@V32@AEAVios_base@2@D_K@Z DD imagerel $LN18
	DD	imagerel $LN18+258
	DD	imagerel $unwind$?do_put@?$num_put@DV?$ostreambuf_iterator@DU?$char_traits@D@std@@@std@@@std@@MEBA?AV?$ostreambuf_iterator@DU?$char_traits@D@std@@@2@V32@AEAVios_base@2@D_K@Z
pdata	ENDS
;	COMDAT pdata
pdata	SEGMENT
$pdata$?do_put@?$num_put@DV?$ostreambuf_iterator@DU?$char_traits@D@std@@@std@@@std@@MEBA?AV?$ostreambuf_iterator@DU?$char_traits@D@std@@@2@V32@AEAVios_base@2@DN@Z DD imagerel $LN136
	DD	imagerel $LN136+695
	DD	imagerel $unwind$?do_put@?$num_put@DV?$ostreambuf_iterator@DU?$char_traits@D@std@@@std@@@std@@MEBA?AV?$ostreambuf_iterator@DU?$char_traits@D@std@@@2@V32@AEAVios_base@2@DN@Z
pdata	ENDS
;	COMDAT pdata
pdata	SEGMENT
$pdata$?do_put@?$num_put@DV?$ostreambuf_iterator@DU?$char_traits@D@std@@@std@@@std@@MEBA?AV?$ostreambuf_iterator@DU?$char_traits@D@std@@@2@V32@AEAVios_base@2@DO@Z DD imagerel $LN140
	DD	imagerel $LN140+699
	DD	imagerel $unwind$?do_put@?$num_put@DV?$ostreambuf_iterator@DU?$char_traits@D@std@@@std@@@std@@MEBA?AV?$ostreambuf_iterator@DU?$char_traits@D@std@@@2@V32@AEAVios_base@2@DO@Z
pdata	ENDS
;	COMDAT pdata
pdata	SEGMENT
$pdata$?do_put@?$num_put@DV?$ostreambuf_iterator@DU?$char_traits@D@std@@@std@@@std@@MEBA?AV?$ostreambuf_iterator@DU?$char_traits@D@std@@@2@V32@AEAVios_base@2@DPEBX@Z DD imagerel $LN4
	DD	imagerel $LN4+156
	DD	imagerel $unwind$?do_put@?$num_put@DV?$ostreambuf_iterator@DU?$char_traits@D@std@@@std@@@std@@MEBA?AV?$ostreambuf_iterator@DU?$char_traits@D@std@@@2@V32@AEAVios_base@2@DPEBX@Z
pdata	ENDS
;	COMDAT pdata
pdata	SEGMENT
$pdata$?_Iput@?$num_put@DV?$ostreambuf_iterator@DU?$char_traits@D@std@@@std@@@std@@AEBA?AV?$ostreambuf_iterator@DU?$char_traits@D@std@@@2@V32@AEAVios_base@2@DPEAD_K@Z DD imagerel $LN464
	DD	imagerel $LN464+1685
	DD	imagerel $unwind$?_Iput@?$num_put@DV?$ostreambuf_iterator@DU?$char_traits@D@std@@@std@@@std@@AEBA?AV?$ostreambuf_iterator@DU?$char_traits@D@std@@@2@V32@AEAVios_base@2@DPEAD_K@Z
pdata	ENDS
;	COMDAT pdata
pdata	SEGMENT
$pdata$?_Put@?$num_put@DV?$ostreambuf_iterator@DU?$char_traits@D@std@@@std@@@std@@AEBA?AV?$ostreambuf_iterator@DU?$char_traits@D@std@@@2@V32@PEBD_K@Z DD imagerel $LN42
	DD	imagerel $LN42+40
	DD	imagerel $unwind$?_Put@?$num_put@DV?$ostreambuf_iterator@DU?$char_traits@D@std@@@std@@@std@@AEBA?AV?$ostreambuf_iterator@DU?$char_traits@D@std@@@2@V32@PEBD_K@Z
pdata	ENDS
;	COMDAT pdata
pdata	SEGMENT
$pdata$0$?_Put@?$num_put@DV?$ostreambuf_iterator@DU?$char_traits@D@std@@@std@@@std@@AEBA?AV?$ostreambuf_iterator@DU?$char_traits@D@std@@@2@V32@PEBD_K@Z DD imagerel $LN42+40
	DD	imagerel $LN42+139
	DD	imagerel $chain$0$?_Put@?$num_put@DV?$ostreambuf_iterator@DU?$char_traits@D@std@@@std@@@std@@AEBA?AV?$ostreambuf_iterator@DU?$char_traits@D@std@@@2@V32@PEBD_K@Z
pdata	ENDS
;	COMDAT pdata
pdata	SEGMENT
$pdata$1$?_Put@?$num_put@DV?$ostreambuf_iterator@DU?$char_traits@D@std@@@std@@@std@@AEBA?AV?$ostreambuf_iterator@DU?$char_traits@D@std@@@2@V32@PEBD_K@Z DD imagerel $LN42+139
	DD	imagerel $LN42+172
	DD	imagerel $chain$1$?_Put@?$num_put@DV?$ostreambuf_iterator@DU?$char_traits@D@std@@@std@@@std@@AEBA?AV?$ostreambuf_iterator@DU?$char_traits@D@std@@@2@V32@PEBD_K@Z
pdata	ENDS
;	COMDAT pdata
pdata	SEGMENT
$pdata$?_Rep@?$num_put@DV?$ostreambuf_iterator@DU?$char_traits@D@std@@@std@@@std@@AEBA?AV?$ostreambuf_iterator@DU?$char_traits@D@std@@@2@V32@D_K@Z DD imagerel $LN42
	DD	imagerel $LN42+41
	DD	imagerel $unwind$?_Rep@?$num_put@DV?$ostreambuf_iterator@DU?$char_traits@D@std@@@std@@@std@@AEBA?AV?$ostreambuf_iterator@DU?$char_traits@D@std@@@2@V32@D_K@Z
pdata	ENDS
;	COMDAT pdata
pdata	SEGMENT
$pdata$0$?_Rep@?$num_put@DV?$ostreambuf_iterator@DU?$char_traits@D@std@@@std@@@std@@AEBA?AV?$ostreambuf_iterator@DU?$char_traits@D@std@@@2@V32@D_K@Z DD imagerel $LN42+41
	DD	imagerel $LN42+130
	DD	imagerel $chain$0$?_Rep@?$num_put@DV?$ostreambuf_iterator@DU?$char_traits@D@std@@@std@@@std@@AEBA?AV?$ostreambuf_iterator@DU?$char_traits@D@std@@@2@V32@D_K@Z
pdata	ENDS
;	COMDAT pdata
pdata	SEGMENT
$pdata$1$?_Rep@?$num_put@DV?$ostreambuf_iterator@DU?$char_traits@D@std@@@std@@@std@@AEBA?AV?$ostreambuf_iterator@DU?$char_traits@D@std@@@2@V32@D_K@Z DD imagerel $LN42+130
	DD	imagerel $LN42+162
	DD	imagerel $chain$1$?_Rep@?$num_put@DV?$ostreambuf_iterator@DU?$char_traits@D@std@@@std@@@std@@AEBA?AV?$ostreambuf_iterator@DU?$char_traits@D@std@@@2@V32@D_K@Z
pdata	ENDS
;	COMDAT pdata
pdata	SEGMENT
$pdata$??_G?$num_put@DV?$ostreambuf_iterator@DU?$char_traits@D@std@@@std@@@std@@MEAAPEAXI@Z DD imagerel $LN9
	DD	imagerel $LN9+43
	DD	imagerel $unwind$??_G?$num_put@DV?$ostreambuf_iterator@DU?$char_traits@D@std@@@std@@@std@@MEAAPEAXI@Z
pdata	ENDS
;	COMDAT pdata
pdata	SEGMENT
$pdata$??4?$ostreambuf_iterator@DU?$char_traits@D@std@@@std@@QEAAAEAV01@D@Z DD imagerel $LN34
	DD	imagerel $LN34+95
	DD	imagerel $unwind$??4?$ostreambuf_iterator@DU?$char_traits@D@std@@@std@@QEAAAEAV01@D@Z
pdata	ENDS
;	COMDAT pdata
pdata	SEGMENT
$pdata$??$_Allocate_for_capacity@$0A@@?$basic_string@DU?$char_traits@D@std@@V?$allocator@D@2@@std@@CAPEADAEAV?$allocator@D@1@AEA_K@Z DD imagerel $LN8
	DD	imagerel $LN8+29
	DD	imagerel $unwind$??$_Allocate_for_capacity@$0A@@?$basic_string@DU?$char_traits@D@std@@V?$allocator@D@2@@std@@CAPEADAEAV?$allocator@D@1@AEA_K@Z
pdata	ENDS
;	COMDAT pdata
pdata	SEGMENT
$pdata$??$_Fput_v3@$0A@@?$num_put@DV?$ostreambuf_iterator@DU?$char_traits@D@std@@@std@@@std@@AEBA?AV?$ostreambuf_iterator@DU?$char_traits@D@std@@@1@V21@AEAVios_base@1@DPEBD_K_N@Z DD imagerel $LN480
	DD	imagerel $LN480+1798
	DD	imagerel $unwind$??$_Fput_v3@$0A@@?$num_put@DV?$ostreambuf_iterator@DU?$char_traits@D@std@@@std@@@std@@AEBA?AV?$ostreambuf_iterator@DU?$char_traits@D@std@@@1@V21@AEAVios_base@1@DPEBD_K_N@Z
pdata	ENDS
;	COMDAT pdata
pdata	SEGMENT
$pdata$??$use_facet@V?$numpunct@D@std@@@std@@YAAEBV?$numpunct@D@0@AEBVlocale@0@@Z DD imagerel $LN49
	DD	imagerel $LN49+273
	DD	imagerel $unwind$??$use_facet@V?$numpunct@D@std@@@std@@YAAEBV?$numpunct@D@0@AEBVlocale@0@@Z
pdata	ENDS
;	COMDAT pdata
pdata	SEGMENT
$pdata$?grouping@?$numpunct@D@std@@QEBA?AV?$basic_string@DU?$char_traits@D@std@@V?$allocator@D@2@@2@XZ DD imagerel $LN7
	DD	imagerel $LN7+24
	DD	imagerel $unwind$?grouping@?$numpunct@D@std@@QEBA?AV?$basic_string@DU?$char_traits@D@std@@V?$allocator@D@2@@2@XZ
pdata	ENDS
;	COMDAT pdata
pdata	SEGMENT
$pdata$?falsename@?$numpunct@D@std@@QEBA?AV?$basic_string@DU?$char_traits@D@std@@V?$allocator@D@2@@2@XZ DD imagerel $LN7
	DD	imagerel $LN7+24
	DD	imagerel $unwind$?falsename@?$numpunct@D@std@@QEBA?AV?$basic_string@DU?$char_traits@D@std@@V?$allocator@D@2@@2@XZ
pdata	ENDS
;	COMDAT pdata
pdata	SEGMENT
$pdata$?truename@?$numpunct@D@std@@QEBA?AV?$basic_string@DU?$char_traits@D@std@@V?$allocator@D@2@@2@XZ DD imagerel $LN7
	DD	imagerel $LN7+24
	DD	imagerel $unwind$?truename@?$numpunct@D@std@@QEBA?AV?$basic_string@DU?$char_traits@D@std@@V?$allocator@D@2@@2@XZ
pdata	ENDS
;	COMDAT pdata
pdata	SEGMENT
$pdata$??0?$numpunct@D@std@@QEAA@AEBV_Locinfo@1@_K_N@Z DD imagerel $LN71
	DD	imagerel $LN71+326
	DD	imagerel $unwind$??0?$numpunct@D@std@@QEAA@AEBV_Locinfo@1@_K_N@Z
pdata	ENDS
;	COMDAT pdata
pdata	SEGMENT
$pdata$?_Getcat@?$numpunct@D@std@@SA_KPEAPEBVfacet@locale@2@PEBV42@@Z DD imagerel $LN166
	DD	imagerel $LN166+575
	DD	imagerel $unwind$?_Getcat@?$numpunct@D@std@@SA_KPEAPEBVfacet@locale@2@PEBV42@@Z
pdata	ENDS
;	COMDAT pdata
pdata	SEGMENT
$pdata$?dtor$0@?0??_Getcat@?$numpunct@D@std@@SA_KPEAPEBVfacet@locale@2@PEBV42@@Z@4HA DD imagerel ?dtor$0@?0??_Getcat@?$numpunct@D@std@@SA_KPEAPEBVfacet@locale@2@PEBV42@@Z@4HA
	DD	imagerel ?dtor$0@?0??_Getcat@?$numpunct@D@std@@SA_KPEAPEBVfacet@locale@2@PEBV42@@Z@4HA+32
	DD	imagerel $unwind$?dtor$0@?0??_Getcat@?$numpunct@D@std@@SA_KPEAPEBVfacet@locale@2@PEBV42@@Z@4HA
pdata	ENDS
;	COMDAT pdata
pdata	SEGMENT
$pdata$?dtor$1@?0??_Getcat@?$numpunct@D@std@@SA_KPEAPEBVfacet@locale@2@PEBV42@@Z@4HA DD imagerel ?dtor$1@?0??_Getcat@?$numpunct@D@std@@SA_KPEAPEBVfacet@locale@2@PEBV42@@Z@4HA
	DD	imagerel ?dtor$1@?0??_Getcat@?$numpunct@D@std@@SA_KPEAPEBVfacet@locale@2@PEBV42@@Z@4HA+44
	DD	imagerel $unwind$?dtor$1@?0??_Getcat@?$numpunct@D@std@@SA_KPEAPEBVfacet@locale@2@PEBV42@@Z@4HA
pdata	ENDS
;	COMDAT pdata
pdata	SEGMENT
$pdata$??1?$numpunct@D@std@@MEAA@XZ DD imagerel $LN9
	DD	imagerel $LN9+62
	DD	imagerel $unwind$??1?$numpunct@D@std@@MEAA@XZ
pdata	ENDS
;	COMDAT pdata
pdata	SEGMENT
$pdata$?_Init@?$numpunct@D@std@@IEAAXAEBV_Locinfo@2@_N@Z DD imagerel $LN59
	DD	imagerel $LN59+315
	DD	imagerel $unwind$?_Init@?$numpunct@D@std@@IEAAXAEBV_Locinfo@2@_N@Z
pdata	ENDS
;	COMDAT pdata
pdata	SEGMENT
$pdata$?do_grouping@?$numpunct@D@std@@MEBA?AV?$basic_string@DU?$char_traits@D@std@@V?$allocator@D@2@@2@XZ DD imagerel $LN25
	DD	imagerel $LN25+69
	DD	imagerel $unwind$?do_grouping@?$numpunct@D@std@@MEBA?AV?$basic_string@DU?$char_traits@D@std@@V?$allocator@D@2@@2@XZ
pdata	ENDS
;	COMDAT pdata
pdata	SEGMENT
$pdata$?do_falsename@?$numpunct@D@std@@MEBA?AV?$basic_string@DU?$char_traits@D@std@@V?$allocator@D@2@@2@XZ DD imagerel $LN25
	DD	imagerel $LN25+69
	DD	imagerel $unwind$?do_falsename@?$numpunct@D@std@@MEBA?AV?$basic_string@DU?$char_traits@D@std@@V?$allocator@D@2@@2@XZ
pdata	ENDS
;	COMDAT pdata
pdata	SEGMENT
$pdata$?do_truename@?$numpunct@D@std@@MEBA?AV?$basic_string@DU?$char_traits@D@std@@V?$allocator@D@2@@2@XZ DD imagerel $LN25
	DD	imagerel $LN25+69
	DD	imagerel $unwind$?do_truename@?$numpunct@D@std@@MEBA?AV?$basic_string@DU?$char_traits@D@std@@V?$allocator@D@2@@2@XZ
pdata	ENDS
;	COMDAT pdata
pdata	SEGMENT
$pdata$?_Tidy@?$numpunct@D@std@@AEAAXXZ DD imagerel $LN6
	DD	imagerel $LN6+41
	DD	imagerel $unwind$?_Tidy@?$numpunct@D@std@@AEAAXXZ
pdata	ENDS
;	COMDAT pdata
pdata	SEGMENT
$pdata$??_G?$numpunct@D@std@@MEAAPEAXI@Z DD imagerel $LN17
	DD	imagerel $LN17+94
	DD	imagerel $unwind$??_G?$numpunct@D@std@@MEAAPEAXI@Z
pdata	ENDS
;	COMDAT pdata
pdata	SEGMENT
$pdata$??R<lambda_65e615be2a453ca0576c979606f46740>@@QEBA@QEADQEBD_K12@Z DD imagerel $LN11
	DD	imagerel $LN11+72
	DD	imagerel $unwind$??R<lambda_65e615be2a453ca0576c979606f46740>@@QEBA@QEADQEBD_K12@Z
pdata	ENDS
;	COMDAT pdata
pdata	SEGMENT
$pdata$??$_Reallocate_grow_by@V<lambda_65e615be2a453ca0576c979606f46740>@@PEBD_K@?$basic_string@DU?$char_traits@D@std@@V?$allocator@D@2@@std@@AEAAAEAV01@_KV<lambda_65e615be2a453ca0576c979606f46740>@@PEBD_K@Z DD imagerel $LN71
	DD	imagerel $LN71+46
	DD	imagerel $unwind$??$_Reallocate_grow_by@V<lambda_65e615be2a453ca0576c979606f46740>@@PEBD_K@?$basic_string@DU?$char_traits@D@std@@V?$allocator@D@2@@std@@AEAAAEAV01@_KV<lambda_65e615be2a453ca0576c979606f46740>@@PEBD_K@Z
pdata	ENDS
;	COMDAT pdata
pdata	SEGMENT
$pdata$3$??$_Reallocate_grow_by@V<lambda_65e615be2a453ca0576c979606f46740>@@PEBD_K@?$basic_string@DU?$char_traits@D@std@@V?$allocator@D@2@@std@@AEAAAEAV01@_KV<lambda_65e615be2a453ca0576c979606f46740>@@PEBD_K@Z DD imagerel $LN71+46
	DD	imagerel $LN71+302
	DD	imagerel $chain$3$??$_Reallocate_grow_by@V<lambda_65e615be2a453ca0576c979606f46740>@@PEBD_K@?$basic_string@DU?$char_traits@D@std@@V?$allocator@D@2@@std@@AEAAAEAV01@_KV<lambda_65e615be2a453ca0576c979606f46740>@@PEBD_K@Z
pdata	ENDS
;	COMDAT pdata
pdata	SEGMENT
$pdata$5$??$_Reallocate_grow_by@V<lambda_65e615be2a453ca0576c979606f46740>@@PEBD_K@?$basic_string@DU?$char_traits@D@std@@V?$allocator@D@2@@std@@AEAAAEAV01@_KV<lambda_65e615be2a453ca0576c979606f46740>@@PEBD_K@Z DD imagerel $LN71+302
	DD	imagerel $LN71+327
	DD	imagerel $chain$5$??$_Reallocate_grow_by@V<lambda_65e615be2a453ca0576c979606f46740>@@PEBD_K@?$basic_string@DU?$char_traits@D@std@@V?$allocator@D@2@@std@@AEAAAEAV01@_KV<lambda_65e615be2a453ca0576c979606f46740>@@PEBD_K@Z
pdata	ENDS
;	COMDAT pdata
pdata	SEGMENT
$pdata$6$??$_Reallocate_grow_by@V<lambda_65e615be2a453ca0576c979606f46740>@@PEBD_K@?$basic_string@DU?$char_traits@D@std@@V?$allocator@D@2@@std@@AEAAAEAV01@_KV<lambda_65e615be2a453ca0576c979606f46740>@@PEBD_K@Z DD imagerel $LN71+327
	DD	imagerel $LN71+333
	DD	imagerel $chain$6$??$_Reallocate_grow_by@V<lambda_65e615be2a453ca0576c979606f46740>@@PEBD_K@?$basic_string@DU?$char_traits@D@std@@V?$allocator@D@2@@std@@AEAAAEAV01@_KV<lambda_65e615be2a453ca0576c979606f46740>@@PEBD_K@Z
pdata	ENDS
;	COMDAT pdata
pdata	SEGMENT
$pdata$??$_Deallocate@$0BA@@std@@YAXPEAX_K@Z DD imagerel $LN13
	DD	imagerel $LN13+71
	DD	imagerel $unwind$??$_Deallocate@$0BA@@std@@YAXPEAX_K@Z
pdata	ENDS
;	COMDAT pdata
pdata	SEGMENT
$pdata$??R<lambda_b986da8d428e4af07c64af60eec09b61>@@QEBA@QEADQEBD_K22D@Z DD imagerel $LN14
	DD	imagerel $LN14+125
	DD	imagerel $unwind$??R<lambda_b986da8d428e4af07c64af60eec09b61>@@QEBA@QEADQEBD_K22D@Z
pdata	ENDS
;	COMDAT pdata
pdata	SEGMENT
$pdata$??$_Reallocate_grow_by@V<lambda_b986da8d428e4af07c64af60eec09b61>@@_K_KD@?$basic_string@DU?$char_traits@D@std@@V?$allocator@D@2@@std@@AEAAAEAV01@_KV<lambda_b986da8d428e4af07c64af60eec09b61>@@_K2D@Z DD imagerel $LN77
	DD	imagerel $LN77+45
	DD	imagerel $unwind$??$_Reallocate_grow_by@V<lambda_b986da8d428e4af07c64af60eec09b61>@@_K_KD@?$basic_string@DU?$char_traits@D@std@@V?$allocator@D@2@@std@@AEAAAEAV01@_KV<lambda_b986da8d428e4af07c64af60eec09b61>@@_K2D@Z
pdata	ENDS
;	COMDAT pdata
pdata	SEGMENT
$pdata$3$??$_Reallocate_grow_by@V<lambda_b986da8d428e4af07c64af60eec09b61>@@_K_KD@?$basic_string@DU?$char_traits@D@std@@V?$allocator@D@2@@std@@AEAAAEAV01@_KV<lambda_b986da8d428e4af07c64af60eec09b61>@@_K2D@Z DD imagerel $LN77+45
	DD	imagerel $LN77+343
	DD	imagerel $chain$3$??$_Reallocate_grow_by@V<lambda_b986da8d428e4af07c64af60eec09b61>@@_K_KD@?$basic_string@DU?$char_traits@D@std@@V?$allocator@D@2@@std@@AEAAAEAV01@_KV<lambda_b986da8d428e4af07c64af60eec09b61>@@_K2D@Z
pdata	ENDS
;	COMDAT pdata
pdata	SEGMENT
$pdata$5$??$_Reallocate_grow_by@V<lambda_b986da8d428e4af07c64af60eec09b61>@@_K_KD@?$basic_string@DU?$char_traits@D@std@@V?$allocator@D@2@@std@@AEAAAEAV01@_KV<lambda_b986da8d428e4af07c64af60eec09b61>@@_K2D@Z DD imagerel $LN77+343
	DD	imagerel $LN77+368
	DD	imagerel $chain$5$??$_Reallocate_grow_by@V<lambda_b986da8d428e4af07c64af60eec09b61>@@_K_KD@?$basic_string@DU?$char_traits@D@std@@V?$allocator@D@2@@std@@AEAAAEAV01@_KV<lambda_b986da8d428e4af07c64af60eec09b61>@@_K2D@Z
pdata	ENDS
;	COMDAT pdata
pdata	SEGMENT
$pdata$6$??$_Reallocate_grow_by@V<lambda_b986da8d428e4af07c64af60eec09b61>@@_K_KD@?$basic_string@DU?$char_traits@D@std@@V?$allocator@D@2@@std@@AEAAAEAV01@_KV<lambda_b986da8d428e4af07c64af60eec09b61>@@_K2D@Z DD imagerel $LN77+368
	DD	imagerel $LN77+374
	DD	imagerel $chain$6$??$_Reallocate_grow_by@V<lambda_b986da8d428e4af07c64af60eec09b61>@@_K_KD@?$basic_string@DU?$char_traits@D@std@@V?$allocator@D@2@@std@@AEAAAEAV01@_KV<lambda_b986da8d428e4af07c64af60eec09b61>@@_K2D@Z
pdata	ENDS
;	COMDAT pdata
pdata	SEGMENT
$pdata$??R<lambda_e1befb086ad3257e3f042a63030725f7>@@QEBA@QEADQEBD_K2D@Z DD imagerel $LN11
	DD	imagerel $LN11+72
	DD	imagerel $unwind$??R<lambda_e1befb086ad3257e3f042a63030725f7>@@QEBA@QEADQEBD_K2D@Z
pdata	ENDS
;	COMDAT pdata
pdata	SEGMENT
$pdata$??$_Reallocate_grow_by@V<lambda_e1befb086ad3257e3f042a63030725f7>@@_KD@?$basic_string@DU?$char_traits@D@std@@V?$allocator@D@2@@std@@AEAAAEAV01@_KV<lambda_e1befb086ad3257e3f042a63030725f7>@@_KD@Z DD imagerel $LN71
	DD	imagerel $LN71+45
	DD	imagerel $unwind$??$_Reallocate_grow_by@V<lambda_e1befb086ad3257e3f042a63030725f7>@@_KD@?$basic_string@DU?$char_traits@D@std@@V?$allocator@D@2@@std@@AEAAAEAV01@_KV<lambda_e1befb086ad3257e3f042a63030725f7>@@_KD@Z
pdata	ENDS
;	COMDAT pdata
pdata	SEGMENT
$pdata$3$??$_Reallocate_grow_by@V<lambda_e1befb086ad3257e3f042a63030725f7>@@_KD@?$basic_string@DU?$char_traits@D@std@@V?$allocator@D@2@@std@@AEAAAEAV01@_KV<lambda_e1befb086ad3257e3f042a63030725f7>@@_KD@Z DD imagerel $LN71+45
	DD	imagerel $LN71+301
	DD	imagerel $chain$3$??$_Reallocate_grow_by@V<lambda_e1befb086ad3257e3f042a63030725f7>@@_KD@?$basic_string@DU?$char_traits@D@std@@V?$allocator@D@2@@std@@AEAAAEAV01@_KV<lambda_e1befb086ad3257e3f042a63030725f7>@@_KD@Z
pdata	ENDS
;	COMDAT pdata
pdata	SEGMENT
$pdata$5$??$_Reallocate_grow_by@V<lambda_e1befb086ad3257e3f042a63030725f7>@@_KD@?$basic_string@DU?$char_traits@D@std@@V?$allocator@D@2@@std@@AEAAAEAV01@_KV<lambda_e1befb086ad3257e3f042a63030725f7>@@_KD@Z DD imagerel $LN71+301
	DD	imagerel $LN71+326
	DD	imagerel $chain$5$??$_Reallocate_grow_by@V<lambda_e1befb086ad3257e3f042a63030725f7>@@_KD@?$basic_string@DU?$char_traits@D@std@@V?$allocator@D@2@@std@@AEAAAEAV01@_KV<lambda_e1befb086ad3257e3f042a63030725f7>@@_KD@Z
pdata	ENDS
;	COMDAT pdata
pdata	SEGMENT
$pdata$6$??$_Reallocate_grow_by@V<lambda_e1befb086ad3257e3f042a63030725f7>@@_KD@?$basic_string@DU?$char_traits@D@std@@V?$allocator@D@2@@std@@AEAAAEAV01@_KV<lambda_e1befb086ad3257e3f042a63030725f7>@@_KD@Z DD imagerel $LN71+326
	DD	imagerel $LN71+332
	DD	imagerel $chain$6$??$_Reallocate_grow_by@V<lambda_e1befb086ad3257e3f042a63030725f7>@@_KD@?$basic_string@DU?$char_traits@D@std@@V?$allocator@D@2@@std@@AEAAAEAV01@_KV<lambda_e1befb086ad3257e3f042a63030725f7>@@_KD@Z
pdata	ENDS
;	COMDAT pdata
pdata	SEGMENT
$pdata$??$_Construct@$0A@D@?$basic_string@DU?$char_traits@D@std@@V?$allocator@D@2@@std@@AEAAXD_K@Z DD imagerel $LN32
	DD	imagerel $LN32+85
	DD	imagerel $unwind$??$_Construct@$0A@D@?$basic_string@DU?$char_traits@D@std@@V?$allocator@D@2@@std@@AEAAXD_K@Z
pdata	ENDS
;	COMDAT pdata
pdata	SEGMENT
$pdata$0$??$_Construct@$0A@D@?$basic_string@DU?$char_traits@D@std@@V?$allocator@D@2@@std@@AEAAXD_K@Z DD imagerel $LN32+85
	DD	imagerel $LN32+160
	DD	imagerel $chain$0$??$_Construct@$0A@D@?$basic_string@DU?$char_traits@D@std@@V?$allocator@D@2@@std@@AEAAXD_K@Z
pdata	ENDS
;	COMDAT pdata
pdata	SEGMENT
$pdata$1$??$_Construct@$0A@D@?$basic_string@DU?$char_traits@D@std@@V?$allocator@D@2@@std@@AEAAXD_K@Z DD imagerel $LN32+160
	DD	imagerel $LN32+188
	DD	imagerel $chain$1$??$_Construct@$0A@D@?$basic_string@DU?$char_traits@D@std@@V?$allocator@D@2@@std@@AEAAXD_K@Z
pdata	ENDS
;	COMDAT pdata
pdata	SEGMENT
$pdata$??$_Allocate@$0BA@U_Default_allocate_traits@std@@@std@@YAPEAX_K@Z DD imagerel $LN18
	DD	imagerel $LN18+107
	DD	imagerel $unwind$??$_Allocate@$0BA@U_Default_allocate_traits@std@@@std@@YAPEAX_K@Z
pdata	ENDS
;	COMDAT pdata
pdata	SEGMENT
$pdata$??$_Allocate_manually_vector_aligned@U_Default_allocate_traits@std@@@std@@YAPEAX_K@Z DD imagerel $LN11
	DD	imagerel $LN11+77
	DD	imagerel $unwind$??$_Allocate_manually_vector_aligned@U_Default_allocate_traits@std@@@std@@YAPEAX_K@Z
pdata	ENDS
;	COMDAT pdata
pdata	SEGMENT
$pdata$??1?$_Tidy_guard@V?$numpunct@D@std@@@std@@QEAA@XZ DD imagerel $LN11
	DD	imagerel $LN11+52
	DD	imagerel $unwind$??1?$_Tidy_guard@V?$numpunct@D@std@@@std@@QEAA@XZ
pdata	ENDS
;	COMDAT pdata
pdata	SEGMENT
$pdata$??$_Maklocstr@D@std@@YAPEADPEBDPEADAEBU_Cvtvec@@@Z DD imagerel $LN17
	DD	imagerel $LN17+92
	DD	imagerel $unwind$??$_Maklocstr@D@std@@YAPEADPEBDPEADAEBU_Cvtvec@@@Z
pdata	ENDS
;	COMDAT __xmm@7fffffffffffffff7fffffffffffffff
CONST	SEGMENT
__xmm@7fffffffffffffff7fffffffffffffff DB 0ffH, 0ffH, 0ffH, 0ffH, 0ffH, 0ffH
	DB	0ffH, 07fH, 0ffH, 0ffH, 0ffH, 0ffH, 0ffH, 0ffH, 0ffH, 07fH
CONST	ENDS
;	COMDAT __xmm@000000000000000f0000000000000000
CONST	SEGMENT
__xmm@000000000000000f0000000000000000 DB 00H, 00H, 00H, 00H, 00H, 00H, 00H
	DB	00H, 0fH, 00H, 00H, 00H, 00H, 00H, 00H, 00H
CONST	ENDS
;	COMDAT __real@4202a05f20000000
CONST	SEGMENT
__real@4202a05f20000000 DQ 04202a05f20000000r	; 1e+10
CONST	ENDS
;	COMDAT ??_R1A@?0A@EA@?$numpunct@D@std@@8
rdata$r	SEGMENT
??_R1A@?0A@EA@?$numpunct@D@std@@8 DD imagerel ??_R0?AV?$numpunct@D@std@@@8 ; std::numpunct<char>::`RTTI Base Class Descriptor at (0,-1,0,64)'
	DD	03H
	DD	00H
	DD	0ffffffffH
	DD	00H
	DD	040H
	DD	imagerel ??_R3?$numpunct@D@std@@8
rdata$r	ENDS
;	COMDAT ??_R2?$numpunct@D@std@@8
rdata$r	SEGMENT
??_R2?$numpunct@D@std@@8 DD imagerel ??_R1A@?0A@EA@?$numpunct@D@std@@8 ; std::numpunct<char>::`RTTI Base Class Array'
	DD	imagerel ??_R1A@?0A@EA@facet@locale@std@@8
	DD	imagerel ??_R1A@?0A@EA@_Facet_base@std@@8
	DD	imagerel ??_R17?0A@EA@_Crt_new_delete@std@@8
	ORG $+3
rdata$r	ENDS
;	COMDAT ??_R3?$numpunct@D@std@@8
rdata$r	SEGMENT
??_R3?$numpunct@D@std@@8 DD 00H				; std::numpunct<char>::`RTTI Class Hierarchy Descriptor'
	DD	01H
	DD	04H
	DD	imagerel ??_R2?$numpunct@D@std@@8
rdata$r	ENDS
;	COMDAT ??_R0?AV?$numpunct@D@std@@@8
data$rs	SEGMENT
??_R0?AV?$numpunct@D@std@@@8 DQ FLAT:??_7type_info@@6B@	; std::numpunct<char> `RTTI Type Descriptor'
	DQ	0000000000000000H
	DB	'.?AV?$numpunct@D@std@@', 00H
data$rs	ENDS
;	COMDAT ??_R4?$numpunct@D@std@@6B@
rdata$r	SEGMENT
??_R4?$numpunct@D@std@@6B@ DD 01H			; std::numpunct<char>::`RTTI Complete Object Locator'
	DD	00H
	DD	00H
	DD	imagerel ??_R0?AV?$numpunct@D@std@@@8
	DD	imagerel ??_R3?$numpunct@D@std@@8
	DD	imagerel ??_R4?$numpunct@D@std@@6B@
rdata$r	ENDS
;	COMDAT ??_R1A@?0A@EA@?$num_put@DV?$ostreambuf_iterator@DU?$char_traits@D@std@@@std@@@std@@8
rdata$r	SEGMENT
??_R1A@?0A@EA@?$num_put@DV?$ostreambuf_iterator@DU?$char_traits@D@std@@@std@@@std@@8 DD imagerel ??_R0?AV?$num_put@DV?$ostreambuf_iterator@DU?$char_traits@D@std@@@std@@@std@@@8 ; std::num_put<char,std::ostreambuf_iterator<char,std::char_traits<char> > >::`RTTI Base Class Descriptor at (0,-1,0,64)'
	DD	03H
	DD	00H
	DD	0ffffffffH
	DD	00H
	DD	040H
	DD	imagerel ??_R3?$num_put@DV?$ostreambuf_iterator@DU?$char_traits@D@std@@@std@@@std@@8
rdata$r	ENDS
;	COMDAT ??_R2?$num_put@DV?$ostreambuf_iterator@DU?$char_traits@D@std@@@std@@@std@@8
rdata$r	SEGMENT
??_R2?$num_put@DV?$ostreambuf_iterator@DU?$char_traits@D@std@@@std@@@std@@8 DD imagerel ??_R1A@?0A@EA@?$num_put@DV?$ostreambuf_iterator@DU?$char_traits@D@std@@@std@@@std@@8 ; std::num_put<char,std::ostreambuf_iterator<char,std::char_traits<char> > >::`RTTI Base Class Array'
	DD	imagerel ??_R1A@?0A@EA@facet@locale@std@@8
	DD	imagerel ??_R1A@?0A@EA@_Facet_base@std@@8
	DD	imagerel ??_R17?0A@EA@_Crt_new_delete@std@@8
	ORG $+3
rdata$r	ENDS
;	COMDAT ??_R3?$num_put@DV?$ostreambuf_iterator@DU?$char_traits@D@std@@@std@@@std@@8
rdata$r	SEGMENT
??_R3?$num_put@DV?$ostreambuf_iterator@DU?$char_traits@D@std@@@std@@@std@@8 DD 00H ; std::num_put<char,std::ostreambuf_iterator<char,std::char_traits<char> > >::`RTTI Class Hierarchy Descriptor'
	DD	01H
	DD	04H
	DD	imagerel ??_R2?$num_put@DV?$ostreambuf_iterator@DU?$char_traits@D@std@@@std@@@std@@8
rdata$r	ENDS
;	COMDAT ??_R0?AV?$num_put@DV?$ostreambuf_iterator@DU?$char_traits@D@std@@@std@@@std@@@8
data$rs	SEGMENT
??_R0?AV?$num_put@DV?$ostreambuf_iterator@DU?$char_traits@D@std@@@std@@@std@@@8 DQ FLAT:??_7type_info@@6B@ ; std::num_put<char,std::ostreambuf_iterator<char,std::char_traits<char> > > `RTTI Type Descriptor'
	DQ	0000000000000000H
	DB	'.?AV?$num_put@DV?$ostreambuf_iterator@DU?$char_traits@D@'
	DB	'std@@@std@@@std@@', 00H
data$rs	ENDS
;	COMDAT ??_R4?$num_put@DV?$ostreambuf_iterator@DU?$char_traits@D@std@@@std@@@std@@6B@
rdata$r	SEGMENT
??_R4?$num_put@DV?$ostreambuf_iterator@DU?$char_traits@D@std@@@std@@@std@@6B@ DD 01H ; std::num_put<char,std::ostreambuf_iterator<char,std::char_traits<char> > >::`RTTI Complete Object Locator'
	DD	00H
	DD	00H
	DD	imagerel ??_R0?AV?$num_put@DV?$ostreambuf_iterator@DU?$char_traits@D@std@@@std@@@std@@@8
	DD	imagerel ??_R3?$num_put@DV?$ostreambuf_iterator@DU?$char_traits@D@std@@@std@@@std@@8
	DD	imagerel ??_R4?$num_put@DV?$ostreambuf_iterator@DU?$char_traits@D@std@@@std@@@std@@6B@
rdata$r	ENDS
;	COMDAT ??_R1A@?0A@EA@failure@ios_base@std@@8
rdata$r	SEGMENT
??_R1A@?0A@EA@failure@ios_base@std@@8 DD imagerel ??_R0?AVfailure@ios_base@std@@@8 ; std::ios_base::failure::`RTTI Base Class Descriptor at (0,-1,0,64)'
	DD	04H
	DD	00H
	DD	0ffffffffH
	DD	00H
	DD	040H
	DD	imagerel ??_R3failure@ios_base@std@@8
rdata$r	ENDS
;	COMDAT ??_R2failure@ios_base@std@@8
rdata$r	SEGMENT
??_R2failure@ios_base@std@@8 DD imagerel ??_R1A@?0A@EA@failure@ios_base@std@@8 ; std::ios_base::failure::`RTTI Base Class Array'
	DD	imagerel ??_R1A@?0A@EA@system_error@std@@8
	DD	imagerel ??_R1A@?0A@EA@_System_error@std@@8
	DD	imagerel ??_R1A@?0A@EA@runtime_error@std@@8
	DD	imagerel ??_R1A@?0A@EA@exception@std@@8
	ORG $+3
rdata$r	ENDS
;	COMDAT ??_R3failure@ios_base@std@@8
rdata$r	SEGMENT
??_R3failure@ios_base@std@@8 DD 00H			; std::ios_base::failure::`RTTI Class Hierarchy Descriptor'
	DD	00H
	DD	05H
	DD	imagerel ??_R2failure@ios_base@std@@8
rdata$r	ENDS
;	COMDAT ??_R4failure@ios_base@std@@6B@
rdata$r	SEGMENT
??_R4failure@ios_base@std@@6B@ DD 01H			; std::ios_base::failure::`RTTI Complete Object Locator'
	DD	00H
	DD	00H
	DD	imagerel ??_R0?AVfailure@ios_base@std@@@8
	DD	imagerel ??_R3failure@ios_base@std@@8
	DD	imagerel ??_R4failure@ios_base@std@@6B@
rdata$r	ENDS
;	COMDAT ??_R1A@?0A@EA@?$ctype@D@std@@8
rdata$r	SEGMENT
??_R1A@?0A@EA@?$ctype@D@std@@8 DD imagerel ??_R0?AV?$ctype@D@std@@@8 ; std::ctype<char>::`RTTI Base Class Descriptor at (0,-1,0,64)'
	DD	04H
	DD	00H
	DD	0ffffffffH
	DD	00H
	DD	040H
	DD	imagerel ??_R3?$ctype@D@std@@8
rdata$r	ENDS
;	COMDAT ??_R2?$ctype@D@std@@8
rdata$r	SEGMENT
??_R2?$ctype@D@std@@8 DD imagerel ??_R1A@?0A@EA@?$ctype@D@std@@8 ; std::ctype<char>::`RTTI Base Class Array'
	DD	imagerel ??_R1A@?0A@EA@ctype_base@std@@8
	DD	imagerel ??_R1A@?0A@EA@facet@locale@std@@8
	DD	imagerel ??_R1A@?0A@EA@_Facet_base@std@@8
	DD	imagerel ??_R17?0A@EA@_Crt_new_delete@std@@8
	ORG $+3
rdata$r	ENDS
;	COMDAT ??_R3?$ctype@D@std@@8
rdata$r	SEGMENT
??_R3?$ctype@D@std@@8 DD 00H				; std::ctype<char>::`RTTI Class Hierarchy Descriptor'
	DD	01H
	DD	05H
	DD	imagerel ??_R2?$ctype@D@std@@8
rdata$r	ENDS
;	COMDAT ??_R0?AV?$ctype@D@std@@@8
data$rs	SEGMENT
??_R0?AV?$ctype@D@std@@@8 DQ FLAT:??_7type_info@@6B@	; std::ctype<char> `RTTI Type Descriptor'
	DQ	0000000000000000H
	DB	'.?AV?$ctype@D@std@@', 00H
data$rs	ENDS
;	COMDAT ??_R4?$ctype@D@std@@6B@
rdata$r	SEGMENT
??_R4?$ctype@D@std@@6B@ DD 01H				; std::ctype<char>::`RTTI Complete Object Locator'
	DD	00H
	DD	00H
	DD	imagerel ??_R0?AV?$ctype@D@std@@@8
	DD	imagerel ??_R3?$ctype@D@std@@8
	DD	imagerel ??_R4?$ctype@D@std@@6B@
rdata$r	ENDS
;	COMDAT ??_R1A@?0A@EA@ctype_base@std@@8
rdata$r	SEGMENT
??_R1A@?0A@EA@ctype_base@std@@8 DD imagerel ??_R0?AUctype_base@std@@@8 ; std::ctype_base::`RTTI Base Class Descriptor at (0,-1,0,64)'
	DD	03H
	DD	00H
	DD	0ffffffffH
	DD	00H
	DD	040H
	DD	imagerel ??_R3ctype_base@std@@8
rdata$r	ENDS
;	COMDAT ??_R2ctype_base@std@@8
rdata$r	SEGMENT
??_R2ctype_base@std@@8 DD imagerel ??_R1A@?0A@EA@ctype_base@std@@8 ; std::ctype_base::`RTTI Base Class Array'
	DD	imagerel ??_R1A@?0A@EA@facet@locale@std@@8
	DD	imagerel ??_R1A@?0A@EA@_Facet_base@std@@8
	DD	imagerel ??_R17?0A@EA@_Crt_new_delete@std@@8
	ORG $+3
rdata$r	ENDS
;	COMDAT ??_R3ctype_base@std@@8
rdata$r	SEGMENT
??_R3ctype_base@std@@8 DD 00H				; std::ctype_base::`RTTI Class Hierarchy Descriptor'
	DD	01H
	DD	04H
	DD	imagerel ??_R2ctype_base@std@@8
rdata$r	ENDS
;	COMDAT ??_R0?AUctype_base@std@@@8
data$rs	SEGMENT
??_R0?AUctype_base@std@@@8 DQ FLAT:??_7type_info@@6B@	; std::ctype_base `RTTI Type Descriptor'
	DQ	0000000000000000H
	DB	'.?AUctype_base@std@@', 00H
data$rs	ENDS
;	COMDAT ??_R4ctype_base@std@@6B@
rdata$r	SEGMENT
??_R4ctype_base@std@@6B@ DD 01H				; std::ctype_base::`RTTI Complete Object Locator'
	DD	00H
	DD	00H
	DD	imagerel ??_R0?AUctype_base@std@@@8
	DD	imagerel ??_R3ctype_base@std@@8
	DD	imagerel ??_R4ctype_base@std@@6B@
rdata$r	ENDS
;	COMDAT ??_R1A@?0A@EA@_Crt_new_delete@std@@8
rdata$r	SEGMENT
??_R1A@?0A@EA@_Crt_new_delete@std@@8 DD imagerel ??_R0?AU_Crt_new_delete@std@@@8 ; std::_Crt_new_delete::`RTTI Base Class Descriptor at (0,-1,0,64)'
	DD	00H
	DD	00H
	DD	0ffffffffH
	DD	00H
	DD	040H
	DD	imagerel ??_R3_Crt_new_delete@std@@8
rdata$r	ENDS
;	COMDAT ??_R2_Crt_new_delete@std@@8
rdata$r	SEGMENT
??_R2_Crt_new_delete@std@@8 DD imagerel ??_R1A@?0A@EA@_Crt_new_delete@std@@8 ; std::_Crt_new_delete::`RTTI Base Class Array'
	ORG $+3
rdata$r	ENDS
;	COMDAT ??_R3_Crt_new_delete@std@@8
rdata$r	SEGMENT
??_R3_Crt_new_delete@std@@8 DD 00H			; std::_Crt_new_delete::`RTTI Class Hierarchy Descriptor'
	DD	00H
	DD	01H
	DD	imagerel ??_R2_Crt_new_delete@std@@8
rdata$r	ENDS
;	COMDAT ??_R0?AU_Crt_new_delete@std@@@8
data$rs	SEGMENT
??_R0?AU_Crt_new_delete@std@@@8 DQ FLAT:??_7type_info@@6B@ ; std::_Crt_new_delete `RTTI Type Descriptor'
	DQ	0000000000000000H
	DB	'.?AU_Crt_new_delete@std@@', 00H
data$rs	ENDS
;	COMDAT ??_R17?0A@EA@_Crt_new_delete@std@@8
rdata$r	SEGMENT
??_R17?0A@EA@_Crt_new_delete@std@@8 DD imagerel ??_R0?AU_Crt_new_delete@std@@@8 ; std::_Crt_new_delete::`RTTI Base Class Descriptor at (8,-1,0,64)'
	DD	00H
	DD	08H
	DD	0ffffffffH
	DD	00H
	DD	040H
	DD	imagerel ??_R3_Crt_new_delete@std@@8
rdata$r	ENDS
;	COMDAT ??_R1A@?0A@EA@facet@locale@std@@8
rdata$r	SEGMENT
??_R1A@?0A@EA@facet@locale@std@@8 DD imagerel ??_R0?AVfacet@locale@std@@@8 ; std::locale::facet::`RTTI Base Class Descriptor at (0,-1,0,64)'
	DD	02H
	DD	00H
	DD	0ffffffffH
	DD	00H
	DD	040H
	DD	imagerel ??_R3facet@locale@std@@8
rdata$r	ENDS
;	COMDAT ??_R2facet@locale@std@@8
rdata$r	SEGMENT
??_R2facet@locale@std@@8 DD imagerel ??_R1A@?0A@EA@facet@locale@std@@8 ; std::locale::facet::`RTTI Base Class Array'
	DD	imagerel ??_R1A@?0A@EA@_Facet_base@std@@8
	DD	imagerel ??_R17?0A@EA@_Crt_new_delete@std@@8
	ORG $+3
rdata$r	ENDS
;	COMDAT ??_R3facet@locale@std@@8
rdata$r	SEGMENT
??_R3facet@locale@std@@8 DD 00H				; std::locale::facet::`RTTI Class Hierarchy Descriptor'
	DD	01H
	DD	03H
	DD	imagerel ??_R2facet@locale@std@@8
rdata$r	ENDS
;	COMDAT ??_R0?AVfacet@locale@std@@@8
data$rs	SEGMENT
??_R0?AVfacet@locale@std@@@8 DQ FLAT:??_7type_info@@6B@	; std::locale::facet `RTTI Type Descriptor'
	DQ	0000000000000000H
	DB	'.?AVfacet@locale@std@@', 00H
data$rs	ENDS
;	COMDAT ??_R4facet@locale@std@@6B@
rdata$r	SEGMENT
??_R4facet@locale@std@@6B@ DD 01H			; std::locale::facet::`RTTI Complete Object Locator'
	DD	00H
	DD	00H
	DD	imagerel ??_R0?AVfacet@locale@std@@@8
	DD	imagerel ??_R3facet@locale@std@@8
	DD	imagerel ??_R4facet@locale@std@@6B@
rdata$r	ENDS
;	COMDAT ??_R1A@?0A@EA@_Facet_base@std@@8
rdata$r	SEGMENT
??_R1A@?0A@EA@_Facet_base@std@@8 DD imagerel ??_R0?AV_Facet_base@std@@@8 ; std::_Facet_base::`RTTI Base Class Descriptor at (0,-1,0,64)'
	DD	00H
	DD	00H
	DD	0ffffffffH
	DD	00H
	DD	040H
	DD	imagerel ??_R3_Facet_base@std@@8
rdata$r	ENDS
;	COMDAT ??_R2_Facet_base@std@@8
rdata$r	SEGMENT
??_R2_Facet_base@std@@8 DD imagerel ??_R1A@?0A@EA@_Facet_base@std@@8 ; std::_Facet_base::`RTTI Base Class Array'
	ORG $+3
rdata$r	ENDS
;	COMDAT ??_R3_Facet_base@std@@8
rdata$r	SEGMENT
??_R3_Facet_base@std@@8 DD 00H				; std::_Facet_base::`RTTI Class Hierarchy Descriptor'
	DD	00H
	DD	01H
	DD	imagerel ??_R2_Facet_base@std@@8
rdata$r	ENDS
;	COMDAT ??_R0?AV_Facet_base@std@@@8
data$rs	SEGMENT
??_R0?AV_Facet_base@std@@@8 DQ FLAT:??_7type_info@@6B@	; std::_Facet_base `RTTI Type Descriptor'
	DQ	0000000000000000H
	DB	'.?AV_Facet_base@std@@', 00H
data$rs	ENDS
;	COMDAT ??_R4_Facet_base@std@@6B@
rdata$r	SEGMENT
??_R4_Facet_base@std@@6B@ DD 01H			; std::_Facet_base::`RTTI Complete Object Locator'
	DD	00H
	DD	00H
	DD	imagerel ??_R0?AV_Facet_base@std@@@8
	DD	imagerel ??_R3_Facet_base@std@@8
	DD	imagerel ??_R4_Facet_base@std@@6B@
rdata$r	ENDS
;	COMDAT ??_R1A@?0A@EA@bad_cast@std@@8
rdata$r	SEGMENT
??_R1A@?0A@EA@bad_cast@std@@8 DD imagerel ??_R0?AVbad_cast@std@@@8 ; std::bad_cast::`RTTI Base Class Descriptor at (0,-1,0,64)'
	DD	01H
	DD	00H
	DD	0ffffffffH
	DD	00H
	DD	040H
	DD	imagerel ??_R3bad_cast@std@@8
rdata$r	ENDS
;	COMDAT ??_R2bad_cast@std@@8
rdata$r	SEGMENT
??_R2bad_cast@std@@8 DD imagerel ??_R1A@?0A@EA@bad_cast@std@@8 ; std::bad_cast::`RTTI Base Class Array'
	DD	imagerel ??_R1A@?0A@EA@exception@std@@8
	ORG $+3
rdata$r	ENDS
;	COMDAT ??_R3bad_cast@std@@8
rdata$r	SEGMENT
??_R3bad_cast@std@@8 DD 00H				; std::bad_cast::`RTTI Class Hierarchy Descriptor'
	DD	00H
	DD	02H
	DD	imagerel ??_R2bad_cast@std@@8
rdata$r	ENDS
;	COMDAT ??_R4bad_cast@std@@6B@
rdata$r	SEGMENT
??_R4bad_cast@std@@6B@ DD 01H				; std::bad_cast::`RTTI Complete Object Locator'
	DD	00H
	DD	00H
	DD	imagerel ??_R0?AVbad_cast@std@@@8
	DD	imagerel ??_R3bad_cast@std@@8
	DD	imagerel ??_R4bad_cast@std@@6B@
rdata$r	ENDS
;	COMDAT ??_R1A@?0A@EA@_Iostream_error_category2@std@@8
rdata$r	SEGMENT
??_R1A@?0A@EA@_Iostream_error_category2@std@@8 DD imagerel ??_R0?AV_Iostream_error_category2@std@@@8 ; std::_Iostream_error_category2::`RTTI Base Class Descriptor at (0,-1,0,64)'
	DD	01H
	DD	00H
	DD	0ffffffffH
	DD	00H
	DD	040H
	DD	imagerel ??_R3_Iostream_error_category2@std@@8
rdata$r	ENDS
;	COMDAT ??_R2_Iostream_error_category2@std@@8
rdata$r	SEGMENT
??_R2_Iostream_error_category2@std@@8 DD imagerel ??_R1A@?0A@EA@_Iostream_error_category2@std@@8 ; std::_Iostream_error_category2::`RTTI Base Class Array'
	DD	imagerel ??_R1A@?0A@EA@error_category@std@@8
	ORG $+3
rdata$r	ENDS
;	COMDAT ??_R3_Iostream_error_category2@std@@8
rdata$r	SEGMENT
??_R3_Iostream_error_category2@std@@8 DD 00H		; std::_Iostream_error_category2::`RTTI Class Hierarchy Descriptor'
	DD	00H
	DD	02H
	DD	imagerel ??_R2_Iostream_error_category2@std@@8
rdata$r	ENDS
;	COMDAT ??_R0?AV_Iostream_error_category2@std@@@8
data$rs	SEGMENT
??_R0?AV_Iostream_error_category2@std@@@8 DQ FLAT:??_7type_info@@6B@ ; std::_Iostream_error_category2 `RTTI Type Descriptor'
	DQ	0000000000000000H
	DB	'.?AV_Iostream_error_category2@std@@', 00H
data$rs	ENDS
;	COMDAT ??_R4_Iostream_error_category2@std@@6B@
rdata$r	SEGMENT
??_R4_Iostream_error_category2@std@@6B@ DD 01H		; std::_Iostream_error_category2::`RTTI Complete Object Locator'
	DD	00H
	DD	00H
	DD	imagerel ??_R0?AV_Iostream_error_category2@std@@@8
	DD	imagerel ??_R3_Iostream_error_category2@std@@8
	DD	imagerel ??_R4_Iostream_error_category2@std@@6B@
rdata$r	ENDS
;	COMDAT ??_R1A@?0A@EA@system_error@std@@8
rdata$r	SEGMENT
??_R1A@?0A@EA@system_error@std@@8 DD imagerel ??_R0?AVsystem_error@std@@@8 ; std::system_error::`RTTI Base Class Descriptor at (0,-1,0,64)'
	DD	03H
	DD	00H
	DD	0ffffffffH
	DD	00H
	DD	040H
	DD	imagerel ??_R3system_error@std@@8
rdata$r	ENDS
;	COMDAT ??_R2system_error@std@@8
rdata$r	SEGMENT
??_R2system_error@std@@8 DD imagerel ??_R1A@?0A@EA@system_error@std@@8 ; std::system_error::`RTTI Base Class Array'
	DD	imagerel ??_R1A@?0A@EA@_System_error@std@@8
	DD	imagerel ??_R1A@?0A@EA@runtime_error@std@@8
	DD	imagerel ??_R1A@?0A@EA@exception@std@@8
	ORG $+3
rdata$r	ENDS
;	COMDAT ??_R3system_error@std@@8
rdata$r	SEGMENT
??_R3system_error@std@@8 DD 00H				; std::system_error::`RTTI Class Hierarchy Descriptor'
	DD	00H
	DD	04H
	DD	imagerel ??_R2system_error@std@@8
rdata$r	ENDS
;	COMDAT ??_R4system_error@std@@6B@
rdata$r	SEGMENT
??_R4system_error@std@@6B@ DD 01H			; std::system_error::`RTTI Complete Object Locator'
	DD	00H
	DD	00H
	DD	imagerel ??_R0?AVsystem_error@std@@@8
	DD	imagerel ??_R3system_error@std@@8
	DD	imagerel ??_R4system_error@std@@6B@
rdata$r	ENDS
;	COMDAT ??_R1A@?0A@EA@_System_error@std@@8
rdata$r	SEGMENT
??_R1A@?0A@EA@_System_error@std@@8 DD imagerel ??_R0?AV_System_error@std@@@8 ; std::_System_error::`RTTI Base Class Descriptor at (0,-1,0,64)'
	DD	02H
	DD	00H
	DD	0ffffffffH
	DD	00H
	DD	040H
	DD	imagerel ??_R3_System_error@std@@8
rdata$r	ENDS
;	COMDAT ??_R2_System_error@std@@8
rdata$r	SEGMENT
??_R2_System_error@std@@8 DD imagerel ??_R1A@?0A@EA@_System_error@std@@8 ; std::_System_error::`RTTI Base Class Array'
	DD	imagerel ??_R1A@?0A@EA@runtime_error@std@@8
	DD	imagerel ??_R1A@?0A@EA@exception@std@@8
	ORG $+3
rdata$r	ENDS
;	COMDAT ??_R3_System_error@std@@8
rdata$r	SEGMENT
??_R3_System_error@std@@8 DD 00H			; std::_System_error::`RTTI Class Hierarchy Descriptor'
	DD	00H
	DD	03H
	DD	imagerel ??_R2_System_error@std@@8
rdata$r	ENDS
;	COMDAT ??_R4_System_error@std@@6B@
rdata$r	SEGMENT
??_R4_System_error@std@@6B@ DD 01H			; std::_System_error::`RTTI Complete Object Locator'
	DD	00H
	DD	00H
	DD	imagerel ??_R0?AV_System_error@std@@@8
	DD	imagerel ??_R3_System_error@std@@8
	DD	imagerel ??_R4_System_error@std@@6B@
rdata$r	ENDS
;	COMDAT ??_R1A@?0A@EA@error_category@std@@8
rdata$r	SEGMENT
??_R1A@?0A@EA@error_category@std@@8 DD imagerel ??_R0?AVerror_category@std@@@8 ; std::error_category::`RTTI Base Class Descriptor at (0,-1,0,64)'
	DD	00H
	DD	00H
	DD	0ffffffffH
	DD	00H
	DD	040H
	DD	imagerel ??_R3error_category@std@@8
rdata$r	ENDS
;	COMDAT ??_R2error_category@std@@8
rdata$r	SEGMENT
??_R2error_category@std@@8 DD imagerel ??_R1A@?0A@EA@error_category@std@@8 ; std::error_category::`RTTI Base Class Array'
	ORG $+3
rdata$r	ENDS
;	COMDAT ??_R3error_category@std@@8
rdata$r	SEGMENT
??_R3error_category@std@@8 DD 00H			; std::error_category::`RTTI Class Hierarchy Descriptor'
	DD	00H
	DD	01H
	DD	imagerel ??_R2error_category@std@@8
rdata$r	ENDS
;	COMDAT ??_R0?AVerror_category@std@@@8
data$rs	SEGMENT
??_R0?AVerror_category@std@@@8 DQ FLAT:??_7type_info@@6B@ ; std::error_category `RTTI Type Descriptor'
	DQ	0000000000000000H
	DB	'.?AVerror_category@std@@', 00H
data$rs	ENDS
;	COMDAT ??_R1A@?0A@EA@runtime_error@std@@8
rdata$r	SEGMENT
??_R1A@?0A@EA@runtime_error@std@@8 DD imagerel ??_R0?AVruntime_error@std@@@8 ; std::runtime_error::`RTTI Base Class Descriptor at (0,-1,0,64)'
	DD	01H
	DD	00H
	DD	0ffffffffH
	DD	00H
	DD	040H
	DD	imagerel ??_R3runtime_error@std@@8
rdata$r	ENDS
;	COMDAT ??_R2runtime_error@std@@8
rdata$r	SEGMENT
??_R2runtime_error@std@@8 DD imagerel ??_R1A@?0A@EA@runtime_error@std@@8 ; std::runtime_error::`RTTI Base Class Array'
	DD	imagerel ??_R1A@?0A@EA@exception@std@@8
	ORG $+3
rdata$r	ENDS
;	COMDAT ??_R3runtime_error@std@@8
rdata$r	SEGMENT
??_R3runtime_error@std@@8 DD 00H			; std::runtime_error::`RTTI Class Hierarchy Descriptor'
	DD	00H
	DD	02H
	DD	imagerel ??_R2runtime_error@std@@8
rdata$r	ENDS
;	COMDAT ??_R4runtime_error@std@@6B@
rdata$r	SEGMENT
??_R4runtime_error@std@@6B@ DD 01H			; std::runtime_error::`RTTI Complete Object Locator'
	DD	00H
	DD	00H
	DD	imagerel ??_R0?AVruntime_error@std@@@8
	DD	imagerel ??_R3runtime_error@std@@8
	DD	imagerel ??_R4runtime_error@std@@6B@
rdata$r	ENDS
;	COMDAT ??_R4bad_alloc@std@@6B@
rdata$r	SEGMENT
??_R4bad_alloc@std@@6B@ DD 01H				; std::bad_alloc::`RTTI Complete Object Locator'
	DD	00H
	DD	00H
	DD	imagerel ??_R0?AVbad_alloc@std@@@8
	DD	imagerel ??_R3bad_alloc@std@@8
	DD	imagerel ??_R4bad_alloc@std@@6B@
rdata$r	ENDS
;	COMDAT ??_R2bad_alloc@std@@8
rdata$r	SEGMENT
??_R2bad_alloc@std@@8 DD imagerel ??_R1A@?0A@EA@bad_alloc@std@@8 ; std::bad_alloc::`RTTI Base Class Array'
	DD	imagerel ??_R1A@?0A@EA@exception@std@@8
	ORG $+3
rdata$r	ENDS
;	COMDAT ??_R3bad_alloc@std@@8
rdata$r	SEGMENT
??_R3bad_alloc@std@@8 DD 00H				; std::bad_alloc::`RTTI Class Hierarchy Descriptor'
	DD	00H
	DD	02H
	DD	imagerel ??_R2bad_alloc@std@@8
rdata$r	ENDS
;	COMDAT ??_R1A@?0A@EA@bad_alloc@std@@8
rdata$r	SEGMENT
??_R1A@?0A@EA@bad_alloc@std@@8 DD imagerel ??_R0?AVbad_alloc@std@@@8 ; std::bad_alloc::`RTTI Base Class Descriptor at (0,-1,0,64)'
	DD	01H
	DD	00H
	DD	0ffffffffH
	DD	00H
	DD	040H
	DD	imagerel ??_R3bad_alloc@std@@8
rdata$r	ENDS
;	COMDAT ??_R1A@?0A@EA@bad_array_new_length@std@@8
rdata$r	SEGMENT
??_R1A@?0A@EA@bad_array_new_length@std@@8 DD imagerel ??_R0?AVbad_array_new_length@std@@@8 ; std::bad_array_new_length::`RTTI Base Class Descriptor at (0,-1,0,64)'
	DD	02H
	DD	00H
	DD	0ffffffffH
	DD	00H
	DD	040H
	DD	imagerel ??_R3bad_array_new_length@std@@8
rdata$r	ENDS
;	COMDAT ??_R2bad_array_new_length@std@@8
rdata$r	SEGMENT
??_R2bad_array_new_length@std@@8 DD imagerel ??_R1A@?0A@EA@bad_array_new_length@std@@8 ; std::bad_array_new_length::`RTTI Base Class Array'
	DD	imagerel ??_R1A@?0A@EA@bad_alloc@std@@8
	DD	imagerel ??_R1A@?0A@EA@exception@std@@8
	ORG $+3
rdata$r	ENDS
;	COMDAT ??_R3bad_array_new_length@std@@8
rdata$r	SEGMENT
??_R3bad_array_new_length@std@@8 DD 00H			; std::bad_array_new_length::`RTTI Class Hierarchy Descriptor'
	DD	00H
	DD	03H
	DD	imagerel ??_R2bad_array_new_length@std@@8
rdata$r	ENDS
;	COMDAT ??_R4bad_array_new_length@std@@6B@
rdata$r	SEGMENT
??_R4bad_array_new_length@std@@6B@ DD 01H		; std::bad_array_new_length::`RTTI Complete Object Locator'
	DD	00H
	DD	00H
	DD	imagerel ??_R0?AVbad_array_new_length@std@@@8
	DD	imagerel ??_R3bad_array_new_length@std@@8
	DD	imagerel ??_R4bad_array_new_length@std@@6B@
rdata$r	ENDS
;	COMDAT ??_R1A@?0A@EA@exception@std@@8
rdata$r	SEGMENT
??_R1A@?0A@EA@exception@std@@8 DD imagerel ??_R0?AVexception@std@@@8 ; std::exception::`RTTI Base Class Descriptor at (0,-1,0,64)'
	DD	00H
	DD	00H
	DD	0ffffffffH
	DD	00H
	DD	040H
	DD	imagerel ??_R3exception@std@@8
rdata$r	ENDS
;	COMDAT ??_R2exception@std@@8
rdata$r	SEGMENT
??_R2exception@std@@8 DD imagerel ??_R1A@?0A@EA@exception@std@@8 ; std::exception::`RTTI Base Class Array'
	ORG $+3
rdata$r	ENDS
;	COMDAT ??_R3exception@std@@8
rdata$r	SEGMENT
??_R3exception@std@@8 DD 00H				; std::exception::`RTTI Class Hierarchy Descriptor'
	DD	00H
	DD	01H
	DD	imagerel ??_R2exception@std@@8
rdata$r	ENDS
;	COMDAT ??_R4exception@std@@6B@
rdata$r	SEGMENT
??_R4exception@std@@6B@ DD 01H				; std::exception::`RTTI Complete Object Locator'
	DD	00H
	DD	00H
	DD	imagerel ??_R0?AVexception@std@@@8
	DD	imagerel ??_R3exception@std@@8
	DD	imagerel ??_R4exception@std@@6B@
rdata$r	ENDS
;	COMDAT ??_C@_0BI@CFPLBAOH@invalid?5string?5position@
CONST	SEGMENT
??_C@_0BI@CFPLBAOH@invalid?5string?5position@ DB 'invalid string position'
	DB	00H						; `string'
CONST	ENDS
;	COMDAT ??_C@_02OOPEBDOJ@pP@
CONST	SEGMENT
??_C@_02OOPEBDOJ@pP@ DB 'pP', 00H			; `string'
CONST	ENDS
;	COMDAT ??_C@_02MDKMJEGG@eE@
CONST	SEGMENT
??_C@_02MDKMJEGG@eE@ DB 'eE', 00H			; `string'
CONST	ENDS
;	COMDAT ??_7?$numpunct@D@std@@6B@
CONST	SEGMENT
??_7?$numpunct@D@std@@6B@ DQ FLAT:??_R4?$numpunct@D@std@@6B@ ; std::numpunct<char>::`vftable'
	DQ	FLAT:??_E?$numpunct@D@std@@MEAAPEAXI@Z
	DQ	FLAT:?_Incref@facet@locale@std@@UEAAXXZ
	DQ	FLAT:?_Decref@facet@locale@std@@UEAAPEAV_Facet_base@3@XZ
	DQ	FLAT:?do_decimal_point@?$numpunct@D@std@@MEBADXZ
	DQ	FLAT:?do_thousands_sep@?$numpunct@D@std@@MEBADXZ
	DQ	FLAT:?do_grouping@?$numpunct@D@std@@MEBA?AV?$basic_string@DU?$char_traits@D@std@@V?$allocator@D@2@@2@XZ
	DQ	FLAT:?do_falsename@?$numpunct@D@std@@MEBA?AV?$basic_string@DU?$char_traits@D@std@@V?$allocator@D@2@@2@XZ
	DQ	FLAT:?do_truename@?$numpunct@D@std@@MEBA?AV?$basic_string@DU?$char_traits@D@std@@V?$allocator@D@2@@2@XZ
CONST	ENDS
;	COMDAT ??_C@_02BBAHNLBA@?$CFp@
CONST	SEGMENT
??_C@_02BBAHNLBA@?$CFp@ DB '%p', 00H			; `string'
CONST	ENDS
;	COMDAT ??_7?$num_put@DV?$ostreambuf_iterator@DU?$char_traits@D@std@@@std@@@std@@6B@
CONST	SEGMENT
??_7?$num_put@DV?$ostreambuf_iterator@DU?$char_traits@D@std@@@std@@@std@@6B@ DQ FLAT:??_R4?$num_put@DV?$ostreambuf_iterator@DU?$char_traits@D@std@@@std@@@std@@6B@ ; std::num_put<char,std::ostreambuf_iterator<char,std::char_traits<char> > >::`vftable'
	DQ	FLAT:??_E?$num_put@DV?$ostreambuf_iterator@DU?$char_traits@D@std@@@std@@@std@@MEAAPEAXI@Z
	DQ	FLAT:?_Incref@facet@locale@std@@UEAAXXZ
	DQ	FLAT:?_Decref@facet@locale@std@@UEAAPEAV_Facet_base@3@XZ
	DQ	FLAT:?do_put@?$num_put@DV?$ostreambuf_iterator@DU?$char_traits@D@std@@@std@@@std@@MEBA?AV?$ostreambuf_iterator@DU?$char_traits@D@std@@@2@V32@AEAVios_base@2@DPEBX@Z
	DQ	FLAT:?do_put@?$num_put@DV?$ostreambuf_iterator@DU?$char_traits@D@std@@@std@@@std@@MEBA?AV?$ostreambuf_iterator@DU?$char_traits@D@std@@@2@V32@AEAVios_base@2@DO@Z
	DQ	FLAT:?do_put@?$num_put@DV?$ostreambuf_iterator@DU?$char_traits@D@std@@@std@@@std@@MEBA?AV?$ostreambuf_iterator@DU?$char_traits@D@std@@@2@V32@AEAVios_base@2@DN@Z
	DQ	FLAT:?do_put@?$num_put@DV?$ostreambuf_iterator@DU?$char_traits@D@std@@@std@@@std@@MEBA?AV?$ostreambuf_iterator@DU?$char_traits@D@std@@@2@V32@AEAVios_base@2@D_K@Z
	DQ	FLAT:?do_put@?$num_put@DV?$ostreambuf_iterator@DU?$char_traits@D@std@@@std@@@std@@MEBA?AV?$ostreambuf_iterator@DU?$char_traits@D@std@@@2@V32@AEAVios_base@2@D_J@Z
	DQ	FLAT:?do_put@?$num_put@DV?$ostreambuf_iterator@DU?$char_traits@D@std@@@std@@@std@@MEBA?AV?$ostreambuf_iterator@DU?$char_traits@D@std@@@2@V32@AEAVios_base@2@DK@Z
	DQ	FLAT:?do_put@?$num_put@DV?$ostreambuf_iterator@DU?$char_traits@D@std@@@std@@@std@@MEBA?AV?$ostreambuf_iterator@DU?$char_traits@D@std@@@2@V32@AEAVios_base@2@DJ@Z
	DQ	FLAT:?do_put@?$num_put@DV?$ostreambuf_iterator@DU?$char_traits@D@std@@@std@@@std@@MEBA?AV?$ostreambuf_iterator@DU?$char_traits@D@std@@@2@V32@AEAVios_base@2@D_N@Z
CONST	ENDS
;	COMDAT ?_Static@?1???$_Immortalize_memcpy_image@V_Iostream_error_category2@std@@@std@@YAAEBV_Iostream_error_category2@1@XZ@4U?$_Constexpr_immortalize_impl@V_Iostream_error_category2@std@@@1@A
_DATA	SEGMENT
?_Static@?1???$_Immortalize_memcpy_image@V_Iostream_error_category2@std@@@std@@YAAEBV_Iostream_error_category2@1@XZ@4U?$_Constexpr_immortalize_impl@V_Iostream_error_category2@std@@@1@A DQ FLAT:??_7_Iostream_error_category2@std@@6B@ ; `std::_Immortalize_memcpy_image<std::_Iostream_error_category2>'::`2'::_Static
	DQ	0000000000000005H
_DATA	ENDS
;	COMDAT ??_C@_0BG@DLDBEDOM@?5?5?5?5a?5b?5c?5d?5e?5f?5g?5h?6?6@
CONST	SEGMENT
??_C@_0BG@DLDBEDOM@?5?5?5?5a?5b?5c?5d?5e?5f?5g?5h?6?6@ DB '    a b c d e '
	DB	'f g h', 0aH, 0aH, 00H			; `string'
CONST	ENDS
;	COMDAT ??_C@_02MINBJDHL@?$HM?5@
CONST	SEGMENT
??_C@_02MINBJDHL@?$HM?5@ DB '| ', 00H			; `string'
CONST	ENDS
;	COMDAT ??_C@_01CLKCMJKC@?5@
CONST	SEGMENT
??_C@_01CLKCMJKC@?5@ DB ' ', 00H			; `string'
CONST	ENDS
;	COMDAT ??_C@_03LGOGDKEL@?5?$HM?5@
CONST	SEGMENT
??_C@_03LGOGDKEL@?5?$HM?5@ DB ' | ', 00H		; `string'
CONST	ENDS
;	COMDAT ??_C@_0BF@BJGAADKO@?5?5?$CL?9?9?9?9?9?9?9?9?9?9?9?9?9?9?9?$CL?6@
CONST	SEGMENT
??_C@_0BF@BJGAADKO@?5?5?$CL?9?9?9?9?9?9?9?9?9?9?9?9?9?9?9?$CL?6@ DB '  +-'
	DB	'--------------+', 0aH, 00H			; `string'
CONST	ENDS
;	COMDAT ??_C@_0BF@LPLGMNDO@?5?5?5?5a?5b?5c?5d?5e?5f?5g?5h?6@
CONST	SEGMENT
??_C@_0BF@LPLGMNDO@?5?5?5?5a?5b?5c?5d?5e?5f?5g?5h?6@ DB '    a b c d e f '
	DB	'g h', 0aH, 00H				; `string'
CONST	ENDS
;	COMDAT ??_C@_01EEMJAFIK@?6@
CONST	SEGMENT
??_C@_01EEMJAFIK@?6@ DB 0aH, 00H			; `string'
CONST	ENDS
;	COMDAT ?MAILBOX_MAPS@@3UMailboxMaps@@B
CONST	SEGMENT
?MAILBOX_MAPS@@3UMailboxMaps@@B DD 015H			; MAILBOX_MAPS
	DD	016H
	DD	017H
	DD	018H
	DD	019H
	DD	01aH
	DD	01bH
	DD	01cH
	DD	01fH
	DD	020H
	DD	021H
	DD	022H
	DD	023H
	DD	024H
	DD	025H
	DD	026H
	DD	029H
	DD	02aH
	DD	02bH
	DD	02cH
	DD	02dH
	DD	02eH
	DD	02fH
	DD	030H
	DD	033H
	DD	034H
	DD	035H
	DD	036H
	DD	037H
	DD	038H
	DD	039H
	DD	03aH
	DD	03dH
	DD	03eH
	DD	03fH
	DD	040H
	DD	041H
	DD	042H
	DD	043H
	DD	044H
	DD	047H
	DD	048H
	DD	049H
	DD	04aH
	DD	04bH
	DD	04cH
	DD	04dH
	DD	04eH
	DD	051H
	DD	052H
	DD	053H
	DD	054H
	DD	055H
	DD	056H
	DD	057H
	DD	058H
	DD	05bH
	DD	05cH
	DD	05dH
	DD	05eH
	DD	05fH
	DD	060H
	DD	061H
	DD	062H
	DD	0ffffffffH
	DD	0ffffffffH
	DD	0ffffffffH
	DD	0ffffffffH
	DD	0ffffffffH
	DD	0ffffffffH
	DD	0ffffffffH
	DD	0ffffffffH
	DD	0ffffffffH
	DD	0ffffffffH
	DD	0ffffffffH
	DD	0ffffffffH
	DD	0ffffffffH
	DD	0ffffffffH
	DD	0ffffffffH
	DD	0ffffffffH
	DD	0ffffffffH
	DD	0ffffffffH
	DD	0ffffffffH
	DD	0ffffffffH
	DD	0ffffffffH
	DD	00H
	DD	01H
	DD	02H
	DD	03H
	DD	04H
	DD	05H
	DD	06H
	DD	07H
	DD	0ffffffffH
	DD	0ffffffffH
	DD	08H
	DD	09H
	DD	0aH
	DD	0bH
	DD	0cH
	DD	0dH
	DD	0eH
	DD	0fH
	DD	0ffffffffH
	DD	0ffffffffH
	DD	010H
	DD	011H
	DD	012H
	DD	013H
	DD	014H
	DD	015H
	DD	016H
	DD	017H
	DD	0ffffffffH
	DD	0ffffffffH
	DD	018H
	DD	019H
	DD	01aH
	DD	01bH
	DD	01cH
	DD	01dH
	DD	01eH
	DD	01fH
	DD	0ffffffffH
	DD	0ffffffffH
	DD	020H
	DD	021H
	DD	022H
	DD	023H
	DD	024H
	DD	025H
	DD	026H
	DD	027H
	DD	0ffffffffH
	DD	0ffffffffH
	DD	028H
	DD	029H
	DD	02aH
	DD	02bH
	DD	02cH
	DD	02dH
	DD	02eH
	DD	02fH
	DD	0ffffffffH
	DD	0ffffffffH
	DD	030H
	DD	031H
	DD	032H
	DD	033H
	DD	034H
	DD	035H
	DD	036H
	DD	037H
	DD	0ffffffffH
	DD	0ffffffffH
	DD	038H
	DD	039H
	DD	03aH
	DD	03bH
	DD	03cH
	DD	03dH
	DD	03eH
	DD	03fH
	DD	0ffffffffH
	DD	0ffffffffH
	DD	0ffffffffH
	DD	0ffffffffH
	DD	0ffffffffH
	DD	0ffffffffH
	DD	0ffffffffH
	DD	0ffffffffH
	DD	0ffffffffH
	DD	0ffffffffH
	DD	0ffffffffH
	DD	0ffffffffH
	DD	0ffffffffH
	DD	0ffffffffH
	DD	0ffffffffH
	DD	0ffffffffH
	DD	0ffffffffH
	DD	0ffffffffH
	DD	0ffffffffH
	DD	0ffffffffH
	DD	0ffffffffH
CONST	ENDS
;	COMDAT _CT??_R0?AVfailure@ios_base@std@@@8??0failure@ios_base@std@@QEAA@AEBV012@@Z40
xdata$x	SEGMENT
_CT??_R0?AVfailure@ios_base@std@@@8??0failure@ios_base@std@@QEAA@AEBV012@@Z40 DD 00H
	DD	imagerel ??_R0?AVfailure@ios_base@std@@@8
	DD	00H
	DD	0ffffffffH
	ORG $+4
	DD	028H
	DD	imagerel ??0failure@ios_base@std@@QEAA@AEBV012@@Z
xdata$x	ENDS
;	COMDAT ??_R0?AVfailure@ios_base@std@@@8
data$r	SEGMENT
??_R0?AVfailure@ios_base@std@@@8 DQ FLAT:??_7type_info@@6B@ ; std::ios_base::failure `RTTI Type Descriptor'
	DQ	0000000000000000H
	DB	'.?AVfailure@ios_base@std@@', 00H
data$r	ENDS
;	COMDAT _CTA5?AVfailure@ios_base@std@@
xdata$x	SEGMENT
_CTA5?AVfailure@ios_base@std@@ DD 05H
	DD	imagerel _CT??_R0?AVfailure@ios_base@std@@@8??0failure@ios_base@std@@QEAA@AEBV012@@Z40
	DD	imagerel _CT??_R0?AVsystem_error@std@@@8??0system_error@std@@QEAA@AEBV01@@Z40
	DD	imagerel _CT??_R0?AV_System_error@std@@@8??0_System_error@std@@QEAA@AEBV01@@Z40
	DD	imagerel _CT??_R0?AVruntime_error@std@@@8??0runtime_error@std@@QEAA@AEBV01@@Z24
	DD	imagerel _CT??_R0?AVexception@std@@@8??0exception@std@@QEAA@AEBV01@@Z24
xdata$x	ENDS
;	COMDAT _TI5?AVfailure@ios_base@std@@
xdata$x	SEGMENT
_TI5?AVfailure@ios_base@std@@ DD 00H
	DD	imagerel ??1failure@ios_base@std@@UEAA@XZ
	DD	00H
	DD	imagerel _CTA5?AVfailure@ios_base@std@@
xdata$x	ENDS
;	COMDAT ??_C@_0BF@OOHOMBOF@ios_base?3?3eofbit?5set@
CONST	SEGMENT
??_C@_0BF@OOHOMBOF@ios_base?3?3eofbit?5set@ DB 'ios_base::eofbit set', 00H ; `string'
CONST	ENDS
;	COMDAT ??_C@_0BG@FMKFHCIL@ios_base?3?3failbit?5set@
CONST	SEGMENT
??_C@_0BG@FMKFHCIL@ios_base?3?3failbit?5set@ DB 'ios_base::failbit set', 00H ; `string'
CONST	ENDS
;	COMDAT ??_C@_0BF@PHHKMMFD@ios_base?3?3badbit?5set@
CONST	SEGMENT
??_C@_0BF@PHHKMMFD@ios_base?3?3badbit?5set@ DB 'ios_base::badbit set', 00H ; `string'
CONST	ENDS
;	COMDAT ??_7failure@ios_base@std@@6B@
CONST	SEGMENT
??_7failure@ios_base@std@@6B@ DQ FLAT:??_R4failure@ios_base@std@@6B@ ; std::ios_base::failure::`vftable'
	DQ	FLAT:??_Efailure@ios_base@std@@UEAAPEAXI@Z
	DQ	FLAT:?what@exception@std@@UEBAPEBDXZ
CONST	ENDS
;	COMDAT ??_7?$ctype@D@std@@6B@
CONST	SEGMENT
??_7?$ctype@D@std@@6B@ DQ FLAT:??_R4?$ctype@D@std@@6B@	; std::ctype<char>::`vftable'
	DQ	FLAT:??_E?$ctype@D@std@@MEAAPEAXI@Z
	DQ	FLAT:?_Incref@facet@locale@std@@UEAAXXZ
	DQ	FLAT:?_Decref@facet@locale@std@@UEAAPEAV_Facet_base@3@XZ
	DQ	FLAT:?do_tolower@?$ctype@D@std@@MEBAPEBDPEADPEBD@Z
	DQ	FLAT:?do_tolower@?$ctype@D@std@@MEBADD@Z
	DQ	FLAT:?do_toupper@?$ctype@D@std@@MEBAPEBDPEADPEBD@Z
	DQ	FLAT:?do_toupper@?$ctype@D@std@@MEBADD@Z
	DQ	FLAT:?do_widen@?$ctype@D@std@@MEBAPEBDPEBD0PEAD@Z
	DQ	FLAT:?do_widen@?$ctype@D@std@@MEBADD@Z
	DQ	FLAT:?do_narrow@?$ctype@D@std@@MEBAPEBDPEBD0DPEAD@Z
	DQ	FLAT:?do_narrow@?$ctype@D@std@@MEBADDD@Z
CONST	ENDS
;	COMDAT ??_7ctype_base@std@@6B@
CONST	SEGMENT
??_7ctype_base@std@@6B@ DQ FLAT:??_R4ctype_base@std@@6B@ ; std::ctype_base::`vftable'
	DQ	FLAT:??_Ectype_base@std@@UEAAPEAXI@Z
	DQ	FLAT:?_Incref@facet@locale@std@@UEAAXXZ
	DQ	FLAT:?_Decref@facet@locale@std@@UEAAPEAV_Facet_base@3@XZ
CONST	ENDS
;	COMDAT ??_C@_00CNPNBAHC@@
CONST	SEGMENT
??_C@_00CNPNBAHC@@ DB 00H				; `string'
CONST	ENDS
;	COMDAT ??_7facet@locale@std@@6B@
CONST	SEGMENT
??_7facet@locale@std@@6B@ DQ FLAT:??_R4facet@locale@std@@6B@ ; std::locale::facet::`vftable'
	DQ	FLAT:??_Efacet@locale@std@@MEAAPEAXI@Z
	DQ	FLAT:?_Incref@facet@locale@std@@UEAAXXZ
	DQ	FLAT:?_Decref@facet@locale@std@@UEAAPEAV_Facet_base@3@XZ
CONST	ENDS
;	COMDAT ??_C@_04LOAJBDKD@true@
CONST	SEGMENT
??_C@_04LOAJBDKD@true@ DB 'true', 00H			; `string'
CONST	ENDS
;	COMDAT ??_C@_05LAPONLG@false@
CONST	SEGMENT
??_C@_05LAPONLG@false@ DB 'false', 00H			; `string'
CONST	ENDS
;	COMDAT ??_C@_0BA@ELKIONDK@bad?5locale?5name@
CONST	SEGMENT
??_C@_0BA@ELKIONDK@bad?5locale?5name@ DB 'bad locale name', 00H ; `string'
CONST	ENDS
;	COMDAT ??_7_Facet_base@std@@6B@
CONST	SEGMENT
??_7_Facet_base@std@@6B@ DQ FLAT:??_R4_Facet_base@std@@6B@ ; std::_Facet_base::`vftable'
	DQ	FLAT:??_E_Facet_base@std@@UEAAPEAXI@Z
	DQ	FLAT:_purecall
	DQ	FLAT:_purecall
CONST	ENDS
;	COMDAT _CT??_R0?AVbad_cast@std@@@8??0bad_cast@std@@QEAA@AEBV01@@Z24
xdata$x	SEGMENT
_CT??_R0?AVbad_cast@std@@@8??0bad_cast@std@@QEAA@AEBV01@@Z24 DD 00H
	DD	imagerel ??_R0?AVbad_cast@std@@@8
	DD	00H
	DD	0ffffffffH
	ORG $+4
	DD	018H
	DD	imagerel ??0bad_cast@std@@QEAA@AEBV01@@Z
xdata$x	ENDS
;	COMDAT ??_R0?AVbad_cast@std@@@8
data$r	SEGMENT
??_R0?AVbad_cast@std@@@8 DQ FLAT:??_7type_info@@6B@	; std::bad_cast `RTTI Type Descriptor'
	DQ	0000000000000000H
	DB	'.?AVbad_cast@std@@', 00H
data$r	ENDS
;	COMDAT _CTA2?AVbad_cast@std@@
xdata$x	SEGMENT
_CTA2?AVbad_cast@std@@ DD 02H
	DD	imagerel _CT??_R0?AVbad_cast@std@@@8??0bad_cast@std@@QEAA@AEBV01@@Z24
	DD	imagerel _CT??_R0?AVexception@std@@@8??0exception@std@@QEAA@AEBV01@@Z24
xdata$x	ENDS
;	COMDAT _TI2?AVbad_cast@std@@
xdata$x	SEGMENT
_TI2?AVbad_cast@std@@ DD 00H
	DD	imagerel ??1bad_cast@std@@UEAA@XZ
	DD	00H
	DD	imagerel _CTA2?AVbad_cast@std@@
xdata$x	ENDS
;	COMDAT ??_C@_08EPJLHIJG@bad?5cast@
CONST	SEGMENT
??_C@_08EPJLHIJG@bad?5cast@ DB 'bad cast', 00H		; `string'
CONST	ENDS
;	COMDAT ??_7bad_cast@std@@6B@
CONST	SEGMENT
??_7bad_cast@std@@6B@ DQ FLAT:??_R4bad_cast@std@@6B@	; std::bad_cast::`vftable'
	DQ	FLAT:??_Ebad_cast@std@@UEAAPEAXI@Z
	DQ	FLAT:?what@exception@std@@UEBAPEBDXZ
CONST	ENDS
;	COMDAT ?_Iostream_error@?4??message@_Iostream_error_category2@std@@UEBA?AV?$basic_string@DU?$char_traits@D@std@@V?$allocator@D@2@@3@H@Z@4QBDB
CONST	SEGMENT
?_Iostream_error@?4??message@_Iostream_error_category2@std@@UEBA?AV?$basic_string@DU?$char_traits@D@std@@V?$allocator@D@2@@3@H@Z@4QBDB DB 069H ; `std::_Iostream_error_category2::message'::`5'::_Iostream_error
	DB	06fH
	DB	073H
	DB	074H
	DB	072H
	DB	065H
	DB	061H
	DB	06dH
	DB	020H
	DB	073H
	DB	074H
	DB	072H
	DB	065H
	DB	061H
	DB	06dH
	DB	020H
	DB	065H
	DB	072H
	DB	072H
	DB	06fH
	DB	072H
	DB	00H
CONST	ENDS
;	COMDAT ??_C@_08LLGCOLLL@iostream@
CONST	SEGMENT
??_C@_08LLGCOLLL@iostream@ DB 'iostream', 00H		; `string'
CONST	ENDS
;	COMDAT ??_7_Iostream_error_category2@std@@6B@
CONST	SEGMENT
??_7_Iostream_error_category2@std@@6B@ DQ FLAT:??_R4_Iostream_error_category2@std@@6B@ ; std::_Iostream_error_category2::`vftable'
	DQ	FLAT:??_E_Iostream_error_category2@std@@UEAAPEAXI@Z
	DQ	FLAT:?name@_Iostream_error_category2@std@@UEBAPEBDXZ
	DQ	FLAT:?message@_Iostream_error_category2@std@@UEBA?AV?$basic_string@DU?$char_traits@D@std@@V?$allocator@D@2@@2@H@Z
	DQ	FLAT:?default_error_condition@error_category@std@@UEBA?AVerror_condition@2@H@Z
	DQ	FLAT:?equivalent@error_category@std@@UEBA_NAEBVerror_code@2@H@Z
	DQ	FLAT:?equivalent@error_category@std@@UEBA_NHAEBVerror_condition@2@@Z
CONST	ENDS
;	COMDAT _CT??_R0?AV_System_error@std@@@8??0_System_error@std@@QEAA@AEBV01@@Z40
xdata$x	SEGMENT
_CT??_R0?AV_System_error@std@@@8??0_System_error@std@@QEAA@AEBV01@@Z40 DD 00H
	DD	imagerel ??_R0?AV_System_error@std@@@8
	DD	00H
	DD	0ffffffffH
	ORG $+4
	DD	028H
	DD	imagerel ??0_System_error@std@@QEAA@AEBV01@@Z
xdata$x	ENDS
;	COMDAT ??_R0?AV_System_error@std@@@8
data$r	SEGMENT
??_R0?AV_System_error@std@@@8 DQ FLAT:??_7type_info@@6B@ ; std::_System_error `RTTI Type Descriptor'
	DQ	0000000000000000H
	DB	'.?AV_System_error@std@@', 00H
data$r	ENDS
;	COMDAT _CT??_R0?AVsystem_error@std@@@8??0system_error@std@@QEAA@AEBV01@@Z40
xdata$x	SEGMENT
_CT??_R0?AVsystem_error@std@@@8??0system_error@std@@QEAA@AEBV01@@Z40 DD 00H
	DD	imagerel ??_R0?AVsystem_error@std@@@8
	DD	00H
	DD	0ffffffffH
	ORG $+4
	DD	028H
	DD	imagerel ??0system_error@std@@QEAA@AEBV01@@Z
xdata$x	ENDS
;	COMDAT ??_R0?AVsystem_error@std@@@8
data$r	SEGMENT
??_R0?AVsystem_error@std@@@8 DQ FLAT:??_7type_info@@6B@	; std::system_error `RTTI Type Descriptor'
	DQ	0000000000000000H
	DB	'.?AVsystem_error@std@@', 00H
data$r	ENDS
;	COMDAT ??_7system_error@std@@6B@
CONST	SEGMENT
??_7system_error@std@@6B@ DQ FLAT:??_R4system_error@std@@6B@ ; std::system_error::`vftable'
	DQ	FLAT:??_Esystem_error@std@@UEAAPEAXI@Z
	DQ	FLAT:?what@exception@std@@UEBAPEBDXZ
CONST	ENDS
;	COMDAT ??_C@_02LMMGGCAJ@?3?5@
CONST	SEGMENT
??_C@_02LMMGGCAJ@?3?5@ DB ': ', 00H			; `string'
CONST	ENDS
;	COMDAT ??_7_System_error@std@@6B@
CONST	SEGMENT
??_7_System_error@std@@6B@ DQ FLAT:??_R4_System_error@std@@6B@ ; std::_System_error::`vftable'
	DQ	FLAT:??_E_System_error@std@@UEAAPEAXI@Z
	DQ	FLAT:?what@exception@std@@UEBAPEBDXZ
CONST	ENDS
;	COMDAT _CT??_R0?AVruntime_error@std@@@8??0runtime_error@std@@QEAA@AEBV01@@Z24
xdata$x	SEGMENT
_CT??_R0?AVruntime_error@std@@@8??0runtime_error@std@@QEAA@AEBV01@@Z24 DD 00H
	DD	imagerel ??_R0?AVruntime_error@std@@@8
	DD	00H
	DD	0ffffffffH
	ORG $+4
	DD	018H
	DD	imagerel ??0runtime_error@std@@QEAA@AEBV01@@Z
xdata$x	ENDS
;	COMDAT ??_R0?AVruntime_error@std@@@8
data$r	SEGMENT
??_R0?AVruntime_error@std@@@8 DQ FLAT:??_7type_info@@6B@ ; std::runtime_error `RTTI Type Descriptor'
	DQ	0000000000000000H
	DB	'.?AVruntime_error@std@@', 00H
data$r	ENDS
;	COMDAT ??_7runtime_error@std@@6B@
CONST	SEGMENT
??_7runtime_error@std@@6B@ DQ FLAT:??_R4runtime_error@std@@6B@ ; std::runtime_error::`vftable'
	DQ	FLAT:??_Eruntime_error@std@@UEAAPEAXI@Z
	DQ	FLAT:?what@exception@std@@UEBAPEBDXZ
CONST	ENDS
;	COMDAT ??_C@_0BA@JFNIOLAK@string?5too?5long@
CONST	SEGMENT
??_C@_0BA@JFNIOLAK@string?5too?5long@ DB 'string too long', 00H ; `string'
CONST	ENDS
;	COMDAT _CT??_R0?AVbad_alloc@std@@@8??0bad_alloc@std@@QEAA@AEBV01@@Z24
xdata$x	SEGMENT
_CT??_R0?AVbad_alloc@std@@@8??0bad_alloc@std@@QEAA@AEBV01@@Z24 DD 010H
	DD	imagerel ??_R0?AVbad_alloc@std@@@8
	DD	00H
	DD	0ffffffffH
	ORG $+4
	DD	018H
	DD	imagerel ??0bad_alloc@std@@QEAA@AEBV01@@Z
xdata$x	ENDS
;	COMDAT ??_R0?AVbad_alloc@std@@@8
data$r	SEGMENT
??_R0?AVbad_alloc@std@@@8 DQ FLAT:??_7type_info@@6B@	; std::bad_alloc `RTTI Type Descriptor'
	DQ	0000000000000000H
	DB	'.?AVbad_alloc@std@@', 00H
data$r	ENDS
;	COMDAT _CT??_R0?AVbad_array_new_length@std@@@8??0bad_array_new_length@std@@QEAA@AEBV01@@Z24
xdata$x	SEGMENT
_CT??_R0?AVbad_array_new_length@std@@@8??0bad_array_new_length@std@@QEAA@AEBV01@@Z24 DD 00H
	DD	imagerel ??_R0?AVbad_array_new_length@std@@@8
	DD	00H
	DD	0ffffffffH
	ORG $+4
	DD	018H
	DD	imagerel ??0bad_array_new_length@std@@QEAA@AEBV01@@Z
xdata$x	ENDS
;	COMDAT ??_R0?AVbad_array_new_length@std@@@8
data$r	SEGMENT
??_R0?AVbad_array_new_length@std@@@8 DQ FLAT:??_7type_info@@6B@ ; std::bad_array_new_length `RTTI Type Descriptor'
	DQ	0000000000000000H
	DB	'.?AVbad_array_new_length@std@@', 00H
data$r	ENDS
;	COMDAT _CTA3?AVbad_array_new_length@std@@
xdata$x	SEGMENT
_CTA3?AVbad_array_new_length@std@@ DD 03H
	DD	imagerel _CT??_R0?AVbad_array_new_length@std@@@8??0bad_array_new_length@std@@QEAA@AEBV01@@Z24
	DD	imagerel _CT??_R0?AVbad_alloc@std@@@8??0bad_alloc@std@@QEAA@AEBV01@@Z24
	DD	imagerel _CT??_R0?AVexception@std@@@8??0exception@std@@QEAA@AEBV01@@Z24
xdata$x	ENDS
;	COMDAT _TI3?AVbad_array_new_length@std@@
xdata$x	SEGMENT
_TI3?AVbad_array_new_length@std@@ DD 00H
	DD	imagerel ??1bad_array_new_length@std@@UEAA@XZ
	DD	00H
	DD	imagerel _CTA3?AVbad_array_new_length@std@@
xdata$x	ENDS
;	COMDAT _CT??_R0?AVexception@std@@@8??0exception@std@@QEAA@AEBV01@@Z24
xdata$x	SEGMENT
_CT??_R0?AVexception@std@@@8??0exception@std@@QEAA@AEBV01@@Z24 DD 00H
	DD	imagerel ??_R0?AVexception@std@@@8
	DD	00H
	DD	0ffffffffH
	ORG $+4
	DD	018H
	DD	imagerel ??0exception@std@@QEAA@AEBV01@@Z
xdata$x	ENDS
;	COMDAT ??_R0?AVexception@std@@@8
data$r	SEGMENT
??_R0?AVexception@std@@@8 DQ FLAT:??_7type_info@@6B@	; std::exception `RTTI Type Descriptor'
	DQ	0000000000000000H
	DB	'.?AVexception@std@@', 00H
data$r	ENDS
;	COMDAT ??_C@_0BF@KINCDENJ@bad?5array?5new?5length@
CONST	SEGMENT
??_C@_0BF@KINCDENJ@bad?5array?5new?5length@ DB 'bad array new length', 00H ; `string'
CONST	ENDS
;	COMDAT ??_7bad_array_new_length@std@@6B@
CONST	SEGMENT
??_7bad_array_new_length@std@@6B@ DQ FLAT:??_R4bad_array_new_length@std@@6B@ ; std::bad_array_new_length::`vftable'
	DQ	FLAT:??_Ebad_array_new_length@std@@UEAAPEAXI@Z
	DQ	FLAT:?what@exception@std@@UEBAPEBDXZ
CONST	ENDS
;	COMDAT ??_7bad_alloc@std@@6B@
CONST	SEGMENT
??_7bad_alloc@std@@6B@ DQ FLAT:??_R4bad_alloc@std@@6B@	; std::bad_alloc::`vftable'
	DQ	FLAT:??_Ebad_alloc@std@@UEAAPEAXI@Z
	DQ	FLAT:?what@exception@std@@UEBAPEBDXZ
CONST	ENDS
;	COMDAT ??_C@_0BC@EOODALEL@Unknown?5exception@
CONST	SEGMENT
??_C@_0BC@EOODALEL@Unknown?5exception@ DB 'Unknown exception', 00H ; `string'
CONST	ENDS
;	COMDAT ??_7exception@std@@6B@
CONST	SEGMENT
??_7exception@std@@6B@ DQ FLAT:??_R4exception@std@@6B@	; std::exception::`vftable'
	DQ	FLAT:??_Eexception@std@@UEAAPEAXI@Z
	DQ	FLAT:?what@exception@std@@UEBAPEBDXZ
CONST	ENDS
;	COMDAT xdata
xdata	SEGMENT
$unwind$??$_Maklocstr@D@std@@YAPEADPEBDPEADAEBU_Cvtvec@@@Z DD 060f01H
	DD	07640fH
	DD	06340fH
	DD	0700b320fH
xdata	ENDS
;	COMDAT xdata
xdata	SEGMENT
$unwind$??1?$_Tidy_guard@V?$numpunct@D@std@@@std@@QEAA@XZ DD 020601H
	DD	030023206H
xdata	ENDS
;	COMDAT xdata
xdata	SEGMENT
$unwind$??$_Allocate_manually_vector_aligned@U_Default_allocate_traits@std@@@std@@YAPEAX_K@Z DD 010401H
	DD	06204H
xdata	ENDS
;	COMDAT xdata
xdata	SEGMENT
$unwind$??$_Allocate@$0BA@U_Default_allocate_traits@std@@@std@@YAPEAX_K@Z DD 010401H
	DD	06204H
xdata	ENDS
;	COMDAT xdata
xdata	SEGMENT
$chain$1$??$_Construct@$0A@D@?$basic_string@DU?$char_traits@D@std@@V?$allocator@D@2@@std@@AEAAXD_K@Z DD 021H
	DD	imagerel $LN32
	DD	imagerel $LN32+85
	DD	imagerel $unwind$??$_Construct@$0A@D@?$basic_string@DU?$char_traits@D@std@@V?$allocator@D@2@@std@@AEAAXD_K@Z
xdata	ENDS
;	COMDAT xdata
xdata	SEGMENT
$chain$0$??$_Construct@$0A@D@?$basic_string@DU?$char_traits@D@std@@V?$allocator@D@2@@std@@AEAAXD_K@Z DD 020521H
	DD	063405H
	DD	imagerel $LN32
	DD	imagerel $LN32+85
	DD	imagerel $unwind$??$_Construct@$0A@D@?$basic_string@DU?$char_traits@D@std@@V?$allocator@D@2@@std@@AEAAXD_K@Z
xdata	ENDS
;	COMDAT xdata
xdata	SEGMENT
$unwind$??$_Construct@$0A@D@?$basic_string@DU?$char_traits@D@std@@V?$allocator@D@2@@std@@AEAAXD_K@Z DD 081501H
	DD	097415H
	DD	086415H
	DD	075415H
	DD	0e0113215H
xdata	ENDS
;	COMDAT xdata
xdata	SEGMENT
$chain$6$??$_Reallocate_grow_by@V<lambda_e1befb086ad3257e3f042a63030725f7>@@_KD@?$basic_string@DU?$char_traits@D@std@@V?$allocator@D@2@@std@@AEAAAEAV01@_KV<lambda_e1befb086ad3257e3f042a63030725f7>@@_KD@Z DD 021H
	DD	imagerel $LN71
	DD	imagerel $LN71+45
	DD	imagerel $unwind$??$_Reallocate_grow_by@V<lambda_e1befb086ad3257e3f042a63030725f7>@@_KD@?$basic_string@DU?$char_traits@D@std@@V?$allocator@D@2@@std@@AEAAAEAV01@_KV<lambda_e1befb086ad3257e3f042a63030725f7>@@_KD@Z
xdata	ENDS
;	COMDAT xdata
xdata	SEGMENT
$chain$5$??$_Reallocate_grow_by@V<lambda_e1befb086ad3257e3f042a63030725f7>@@_KD@?$basic_string@DU?$char_traits@D@std@@V?$allocator@D@2@@std@@AEAAAEAV01@_KV<lambda_e1befb086ad3257e3f042a63030725f7>@@_KD@Z DD 080021H
	DD	06e400H
	DD	0ed400H
	DD	0dc400H
	DD	0c6400H
	DD	imagerel $LN71
	DD	imagerel $LN71+45
	DD	imagerel $unwind$??$_Reallocate_grow_by@V<lambda_e1befb086ad3257e3f042a63030725f7>@@_KD@?$basic_string@DU?$char_traits@D@std@@V?$allocator@D@2@@std@@AEAAAEAV01@_KV<lambda_e1befb086ad3257e3f042a63030725f7>@@_KD@Z
xdata	ENDS
;	COMDAT xdata
xdata	SEGMENT
$chain$3$??$_Reallocate_grow_by@V<lambda_e1befb086ad3257e3f042a63030725f7>@@_KD@?$basic_string@DU?$char_traits@D@std@@V?$allocator@D@2@@std@@AEAAAEAV01@_KV<lambda_e1befb086ad3257e3f042a63030725f7>@@_KD@Z DD 081f21H
	DD	06e41fH
	DD	0ed416H
	DD	0dc40aH
	DD	0c6405H
	DD	imagerel $LN71
	DD	imagerel $LN71+45
	DD	imagerel $unwind$??$_Reallocate_grow_by@V<lambda_e1befb086ad3257e3f042a63030725f7>@@_KD@?$basic_string@DU?$char_traits@D@std@@V?$allocator@D@2@@std@@AEAAAEAV01@_KV<lambda_e1befb086ad3257e3f042a63030725f7>@@_KD@Z
xdata	ENDS
;	COMDAT xdata
xdata	SEGMENT
$unwind$??$_Reallocate_grow_by@V<lambda_e1befb086ad3257e3f042a63030725f7>@@_KD@?$basic_string@DU?$char_traits@D@std@@V?$allocator@D@2@@std@@AEAAAEAV01@_KV<lambda_e1befb086ad3257e3f042a63030725f7>@@_KD@Z DD 050a01H
	DD	0f006620aH
	DD	050037004H
	DD	03002H
xdata	ENDS
;	COMDAT xdata
xdata	SEGMENT
$unwind$??R<lambda_e1befb086ad3257e3f042a63030725f7>@@QEBA@QEADQEBD_K2D@Z DD 040a01H
	DD	06340aH
	DD	07006320aH
xdata	ENDS
;	COMDAT xdata
xdata	SEGMENT
$chain$6$??$_Reallocate_grow_by@V<lambda_b986da8d428e4af07c64af60eec09b61>@@_K_KD@?$basic_string@DU?$char_traits@D@std@@V?$allocator@D@2@@std@@AEAAAEAV01@_KV<lambda_b986da8d428e4af07c64af60eec09b61>@@_K2D@Z DD 021H
	DD	imagerel $LN77
	DD	imagerel $LN77+45
	DD	imagerel $unwind$??$_Reallocate_grow_by@V<lambda_b986da8d428e4af07c64af60eec09b61>@@_K_KD@?$basic_string@DU?$char_traits@D@std@@V?$allocator@D@2@@std@@AEAAAEAV01@_KV<lambda_b986da8d428e4af07c64af60eec09b61>@@_K2D@Z
xdata	ENDS
;	COMDAT xdata
xdata	SEGMENT
$chain$5$??$_Reallocate_grow_by@V<lambda_b986da8d428e4af07c64af60eec09b61>@@_K_KD@?$basic_string@DU?$char_traits@D@std@@V?$allocator@D@2@@std@@AEAAAEAV01@_KV<lambda_b986da8d428e4af07c64af60eec09b61>@@_K2D@Z DD 080021H
	DD	06f400H
	DD	0ee400H
	DD	0dd400H
	DD	0c5400H
	DD	imagerel $LN77
	DD	imagerel $LN77+45
	DD	imagerel $unwind$??$_Reallocate_grow_by@V<lambda_b986da8d428e4af07c64af60eec09b61>@@_K_KD@?$basic_string@DU?$char_traits@D@std@@V?$allocator@D@2@@std@@AEAAAEAV01@_KV<lambda_b986da8d428e4af07c64af60eec09b61>@@_K2D@Z
xdata	ENDS
;	COMDAT xdata
xdata	SEGMENT
$chain$3$??$_Reallocate_grow_by@V<lambda_b986da8d428e4af07c64af60eec09b61>@@_K_KD@?$basic_string@DU?$char_traits@D@std@@V?$allocator@D@2@@std@@AEAAAEAV01@_KV<lambda_b986da8d428e4af07c64af60eec09b61>@@_K2D@Z DD 082321H
	DD	06f423H
	DD	0ee413H
	DD	0dd40eH
	DD	0c5405H
	DD	imagerel $LN77
	DD	imagerel $LN77+45
	DD	imagerel $unwind$??$_Reallocate_grow_by@V<lambda_b986da8d428e4af07c64af60eec09b61>@@_K_KD@?$basic_string@DU?$char_traits@D@std@@V?$allocator@D@2@@std@@AEAAAEAV01@_KV<lambda_b986da8d428e4af07c64af60eec09b61>@@_K2D@Z
xdata	ENDS
;	COMDAT xdata
xdata	SEGMENT
$unwind$??$_Reallocate_grow_by@V<lambda_b986da8d428e4af07c64af60eec09b61>@@_K_KD@?$basic_string@DU?$char_traits@D@std@@V?$allocator@D@2@@std@@AEAAAEAV01@_KV<lambda_b986da8d428e4af07c64af60eec09b61>@@_K2D@Z DD 050a01H
	DD	0c006620aH
	DD	060037004H
	DD	03002H
xdata	ENDS
;	COMDAT xdata
xdata	SEGMENT
$unwind$??R<lambda_b986da8d428e4af07c64af60eec09b61>@@QEBA@QEADQEBD_K22D@Z DD 0a1a01H
	DD	09741aH
	DD	08641aH
	DD	07541aH
	DD	06341aH
	DD	0e016321aH
xdata	ENDS
;	COMDAT xdata
xdata	SEGMENT
$unwind$??$_Deallocate@$0BA@@std@@YAXPEAX_K@Z DD 010401H
	DD	06204H
xdata	ENDS
;	COMDAT xdata
xdata	SEGMENT
$chain$6$??$_Reallocate_grow_by@V<lambda_65e615be2a453ca0576c979606f46740>@@PEBD_K@?$basic_string@DU?$char_traits@D@std@@V?$allocator@D@2@@std@@AEAAAEAV01@_KV<lambda_65e615be2a453ca0576c979606f46740>@@PEBD_K@Z DD 021H
	DD	imagerel $LN71
	DD	imagerel $LN71+46
	DD	imagerel $unwind$??$_Reallocate_grow_by@V<lambda_65e615be2a453ca0576c979606f46740>@@PEBD_K@?$basic_string@DU?$char_traits@D@std@@V?$allocator@D@2@@std@@AEAAAEAV01@_KV<lambda_65e615be2a453ca0576c979606f46740>@@PEBD_K@Z
xdata	ENDS
;	COMDAT xdata
xdata	SEGMENT
$chain$5$??$_Reallocate_grow_by@V<lambda_65e615be2a453ca0576c979606f46740>@@PEBD_K@?$basic_string@DU?$char_traits@D@std@@V?$allocator@D@2@@std@@AEAAAEAV01@_KV<lambda_65e615be2a453ca0576c979606f46740>@@PEBD_K@Z DD 080021H
	DD	06e400H
	DD	0ec400H
	DD	0d6400H
	DD	0c5400H
	DD	imagerel $LN71
	DD	imagerel $LN71+46
	DD	imagerel $unwind$??$_Reallocate_grow_by@V<lambda_65e615be2a453ca0576c979606f46740>@@PEBD_K@?$basic_string@DU?$char_traits@D@std@@V?$allocator@D@2@@std@@AEAAAEAV01@_KV<lambda_65e615be2a453ca0576c979606f46740>@@PEBD_K@Z
xdata	ENDS
;	COMDAT xdata
xdata	SEGMENT
$chain$3$??$_Reallocate_grow_by@V<lambda_65e615be2a453ca0576c979606f46740>@@PEBD_K@?$basic_string@DU?$char_traits@D@std@@V?$allocator@D@2@@std@@AEAAAEAV01@_KV<lambda_65e615be2a453ca0576c979606f46740>@@PEBD_K@Z DD 081f21H
	DD	06e41fH
	DD	0ec41aH
	DD	0d640eH
	DD	0c5405H
	DD	imagerel $LN71
	DD	imagerel $LN71+46
	DD	imagerel $unwind$??$_Reallocate_grow_by@V<lambda_65e615be2a453ca0576c979606f46740>@@PEBD_K@?$basic_string@DU?$char_traits@D@std@@V?$allocator@D@2@@std@@AEAAAEAV01@_KV<lambda_65e615be2a453ca0576c979606f46740>@@PEBD_K@Z
xdata	ENDS
;	COMDAT xdata
xdata	SEGMENT
$unwind$??$_Reallocate_grow_by@V<lambda_65e615be2a453ca0576c979606f46740>@@PEBD_K@?$basic_string@DU?$char_traits@D@std@@V?$allocator@D@2@@std@@AEAAAEAV01@_KV<lambda_65e615be2a453ca0576c979606f46740>@@PEBD_K@Z DD 050b01H
	DD	0f007620bH
	DD	07003d005H
	DD	03002H
xdata	ENDS
;	COMDAT xdata
xdata	SEGMENT
$unwind$??R<lambda_65e615be2a453ca0576c979606f46740>@@QEBA@QEADQEBD_K12@Z DD 040a01H
	DD	06340aH
	DD	07006320aH
xdata	ENDS
;	COMDAT xdata
xdata	SEGMENT
$unwind$??_G?$numpunct@D@std@@MEAAPEAXI@Z DD 040a01H
	DD	06340aH
	DD	07006320aH
xdata	ENDS
;	COMDAT xdata
xdata	SEGMENT
$unwind$?_Tidy@?$numpunct@D@std@@AEAAXXZ DD 020601H
	DD	030023206H
xdata	ENDS
;	COMDAT xdata
xdata	SEGMENT
$unwind$?do_truename@?$numpunct@D@std@@MEBA?AV?$basic_string@DU?$char_traits@D@std@@V?$allocator@D@2@@2@XZ DD 040a01H
	DD	08340aH
	DD	07006520aH
xdata	ENDS
;	COMDAT xdata
xdata	SEGMENT
$unwind$?do_falsename@?$numpunct@D@std@@MEBA?AV?$basic_string@DU?$char_traits@D@std@@V?$allocator@D@2@@2@XZ DD 040a01H
	DD	08340aH
	DD	07006520aH
xdata	ENDS
;	COMDAT xdata
xdata	SEGMENT
$unwind$?do_grouping@?$numpunct@D@std@@MEBA?AV?$basic_string@DU?$char_traits@D@std@@V?$allocator@D@2@@2@XZ DD 040a01H
	DD	08340aH
	DD	07006520aH
xdata	ENDS
;	COMDAT xdata
xdata	SEGMENT
$ip2state$?_Init@?$numpunct@D@std@@IEAAXAEBV_Locinfo@2@_N@Z DB 02H
	DB	0a5H, 04H
	DB	02H
xdata	ENDS
;	COMDAT xdata
xdata	SEGMENT
$stateUnwindMap$?_Init@?$numpunct@D@std@@IEAAXAEBV_Locinfo@2@_N@Z DB 02H
	DB	0aH
	DD	imagerel ??1?$_Tidy_guard@V?$numpunct@D@std@@@std@@QEAA@XZ
	DB	0e0H
xdata	ENDS
;	COMDAT xdata
xdata	SEGMENT
$cppxdata$?_Init@?$numpunct@D@std@@IEAAXAEBV_Locinfo@2@_N@Z DB 028H
	DD	imagerel $stateUnwindMap$?_Init@?$numpunct@D@std@@IEAAXAEBV_Locinfo@2@_N@Z
	DD	imagerel $ip2state$?_Init@?$numpunct@D@std@@IEAAXAEBV_Locinfo@2@_N@Z
xdata	ENDS
;	COMDAT xdata
xdata	SEGMENT
$unwind$?_Init@?$numpunct@D@std@@IEAAXAEBV_Locinfo@2@_N@Z DD 0a1811H
	DD	0116418H
	DD	0105418H
	DD	0f3418H
	DD	0f0149218H
	DD	07010e012H
	DD	imagerel __CxxFrameHandler4
	DD	imagerel $cppxdata$?_Init@?$numpunct@D@std@@IEAAXAEBV_Locinfo@2@_N@Z
xdata	ENDS
;	COMDAT xdata
xdata	SEGMENT
$unwind$??1?$numpunct@D@std@@MEAA@XZ DD 020601H
	DD	030023206H
xdata	ENDS
;	COMDAT xdata
xdata	SEGMENT
$unwind$?dtor$1@?0??_Getcat@?$numpunct@D@std@@SA_KPEAPEBVfacet@locale@2@PEBV42@@Z@4HA DD 020601H
	DD	050023206H
xdata	ENDS
;	COMDAT xdata
xdata	SEGMENT
$unwind$?dtor$0@?0??_Getcat@?$numpunct@D@std@@SA_KPEAPEBVfacet@locale@2@PEBV42@@Z@4HA DD 020601H
	DD	050023206H
xdata	ENDS
;	COMDAT xdata
xdata	SEGMENT
$ip2state$?_Getcat@?$numpunct@D@std@@SA_KPEAPEBVfacet@locale@2@PEBV42@@Z DB 0aH
	DB	'~'
	DB	00H
	DB	09H, 02H
	DB	010H
	DB	'!', 03H
	DB	01aH
	DB	'y', 02H
	DB	010H
	DB	0cH
	DB	016H
xdata	ENDS
;	COMDAT xdata
xdata	SEGMENT
$stateUnwindMap$?_Getcat@?$numpunct@D@std@@SA_KPEAPEBVfacet@locale@2@PEBV42@@Z DB 01aH
	DB	0eH
	DD	imagerel ?dtor$0@?0??_Getcat@?$numpunct@D@std@@SA_KPEAPEBVfacet@locale@2@PEBV42@@Z@4HA
	DB	02aH
	DD	imagerel ??1_Lockit@std@@QEAA@XZ
	DB	040H
	DB	036H
	DD	imagerel ?dtor$3@?0??_Getcat@?$numpunct@D@std@@SA_KPEAPEBVfacet@locale@2@PEBV42@@Z@4HA
	DB	02eH
	DD	imagerel ?dtor$4@?0??_Getcat@?$numpunct@D@std@@SA_KPEAPEBVfacet@locale@2@PEBV42@@Z@4HA
	DB	02eH
	DD	imagerel ?dtor$5@?0??_Getcat@?$numpunct@D@std@@SA_KPEAPEBVfacet@locale@2@PEBV42@@Z@4HA
	DB	02eH
	DD	imagerel ?dtor$6@?0??_Getcat@?$numpunct@D@std@@SA_KPEAPEBVfacet@locale@2@PEBV42@@Z@4HA
	DB	02eH
	DD	imagerel ?dtor$7@?0??_Getcat@?$numpunct@D@std@@SA_KPEAPEBVfacet@locale@2@PEBV42@@Z@4HA
	DB	02eH
	DD	imagerel ?dtor$8@?0??_Getcat@?$numpunct@D@std@@SA_KPEAPEBVfacet@locale@2@PEBV42@@Z@4HA
	DB	09dH
	DB	02H
	DD	imagerel ?dtor$1@?0??_Getcat@?$numpunct@D@std@@SA_KPEAPEBVfacet@locale@2@PEBV42@@Z@4HA
	DB	034H
	DD	imagerel ??1facet@locale@std@@MEAA@XZ
	DB	01H
	DB	04H
	DB	03aH
	DD	imagerel ??1?$_Tidy_guard@V?$numpunct@D@std@@@std@@QEAA@XZ
	DB	021H
	DB	04H
	DB	0edH
	DB	03H
	DD	imagerel ?dtor$1@?0??_Getcat@?$numpunct@D@std@@SA_KPEAPEBVfacet@locale@2@PEBV42@@Z@4HA
	DB	04dH
	DB	04H
	DD	imagerel __std_terminate
xdata	ENDS
;	COMDAT xdata
xdata	SEGMENT
$cppxdata$?_Getcat@?$numpunct@D@std@@SA_KPEAPEBVfacet@locale@2@PEBV42@@Z DB 028H
	DD	imagerel $stateUnwindMap$?_Getcat@?$numpunct@D@std@@SA_KPEAPEBVfacet@locale@2@PEBV42@@Z
	DD	imagerel $ip2state$?_Getcat@?$numpunct@D@std@@SA_KPEAPEBVfacet@locale@2@PEBV42@@Z
xdata	ENDS
;	COMDAT xdata
xdata	SEGMENT
$unwind$?_Getcat@?$numpunct@D@std@@SA_KPEAPEBVfacet@locale@2@PEBV42@@Z DD 091811H
	DD	01f3418H
	DD	0180118H
	DD	0e00af00cH
	DD	060077008H
	DD	05006H
	DD	imagerel __CxxFrameHandler4
	DD	imagerel $cppxdata$?_Getcat@?$numpunct@D@std@@SA_KPEAPEBVfacet@locale@2@PEBV42@@Z
xdata	ENDS
;	COMDAT xdata
xdata	SEGMENT
$ip2state$??0?$numpunct@D@std@@QEAA@AEBV_Locinfo@1@_K_N@Z DB 02H
	DB	0d1H, 04H
	DB	04H
xdata	ENDS
;	COMDAT xdata
xdata	SEGMENT
$stateUnwindMap$??0?$numpunct@D@std@@QEAA@AEBV_Locinfo@1@_K_N@Z DB 04H
	DB	0cH
	DD	imagerel ??1facet@locale@std@@MEAA@XZ
	DB	01H
	DB	02H
	DB	03aH
	DD	imagerel ??1?$_Tidy_guard@V?$numpunct@D@std@@@std@@QEAA@XZ
	DB	041H
	DB	02H
xdata	ENDS
;	COMDAT xdata
xdata	SEGMENT
$cppxdata$??0?$numpunct@D@std@@QEAA@AEBV_Locinfo@1@_K_N@Z DB 028H
	DD	imagerel $stateUnwindMap$??0?$numpunct@D@std@@QEAA@AEBV_Locinfo@1@_K_N@Z
	DD	imagerel $ip2state$??0?$numpunct@D@std@@QEAA@AEBV_Locinfo@1@_K_N@Z
xdata	ENDS
;	COMDAT xdata
xdata	SEGMENT
$unwind$??0?$numpunct@D@std@@QEAA@AEBV_Locinfo@1@_K_N@Z DD 081511H
	DD	0113415H
	DD	0f0119215H
	DD	0700de00fH
	DD	0500b600cH
	DD	imagerel __CxxFrameHandler4
	DD	imagerel $cppxdata$??0?$numpunct@D@std@@QEAA@AEBV_Locinfo@1@_K_N@Z
xdata	ENDS
;	COMDAT xdata
xdata	SEGMENT
$unwind$?truename@?$numpunct@D@std@@QEBA?AV?$basic_string@DU?$char_traits@D@std@@V?$allocator@D@2@@2@XZ DD 020601H
	DD	030025206H
xdata	ENDS
;	COMDAT xdata
xdata	SEGMENT
$unwind$?falsename@?$numpunct@D@std@@QEBA?AV?$basic_string@DU?$char_traits@D@std@@V?$allocator@D@2@@2@XZ DD 020601H
	DD	030025206H
xdata	ENDS
;	COMDAT xdata
xdata	SEGMENT
$unwind$?grouping@?$numpunct@D@std@@QEBA?AV?$basic_string@DU?$char_traits@D@std@@V?$allocator@D@2@@2@XZ DD 020601H
	DD	030025206H
xdata	ENDS
;	COMDAT xdata
xdata	SEGMENT
$ip2state$??$use_facet@V?$numpunct@D@std@@@std@@YAAEBV?$numpunct@D@0@AEBVlocale@0@@Z DB 08H
	DB	'e', 02H
	DB	02H
	DB	'~'
	DB	04H
	DB	'6'
	DB	00H
	DB	'0'
	DB	02H
xdata	ENDS
;	COMDAT xdata
xdata	SEGMENT
$stateUnwindMap$??$use_facet@V?$numpunct@D@std@@@std@@YAAEBV?$numpunct@D@0@AEBVlocale@0@@Z DB 04H
	DB	0aH
	DD	imagerel ??1_Lockit@std@@QEAA@XZ
	DB	0b0H
	DB	032H
	DD	imagerel ??1?$unique_ptr@V_Facet_base@std@@U?$default_delete@V_Facet_base@std@@@2@@std@@QEAA@XZ
	DB	0a0H
xdata	ENDS
;	COMDAT xdata
xdata	SEGMENT
$cppxdata$??$use_facet@V?$numpunct@D@std@@@std@@YAAEBV?$numpunct@D@0@AEBVlocale@0@@Z DB 028H
	DD	imagerel $stateUnwindMap$??$use_facet@V?$numpunct@D@std@@@std@@YAAEBV?$numpunct@D@0@AEBVlocale@0@@Z
	DD	imagerel $ip2state$??$use_facet@V?$numpunct@D@std@@@std@@YAAEBV?$numpunct@D@0@AEBVlocale@0@@Z
xdata	ENDS
;	COMDAT xdata
xdata	SEGMENT
$unwind$??$use_facet@V?$numpunct@D@std@@@std@@YAAEBV?$numpunct@D@0@AEBVlocale@0@@Z DD 060b11H
	DD	0e007320bH
	DD	060047005H
	DD	030025003H
	DD	imagerel __CxxFrameHandler4
	DD	imagerel $cppxdata$??$use_facet@V?$numpunct@D@std@@@std@@YAAEBV?$numpunct@D@0@AEBVlocale@0@@Z
xdata	ENDS
;	COMDAT xdata
xdata	SEGMENT
$ip2state$??$_Fput_v3@$0A@@?$num_put@DV?$ostreambuf_iterator@DU?$char_traits@D@std@@@std@@@std@@AEBA?AV?$ostreambuf_iterator@DU?$char_traits@D@std@@@1@V21@AEAVios_base@1@DPEBD_K_N@Z DB 012H
	DB	0b1H, 03H
	DB	02H
	DB	'd'
	DB	00H
	DB	'D'
	DB	04H
	DB	'B'
	DB	06H
	DB	'd'
	DB	04H
	DB	014H
	DB	08H
	DB	011H, 012H
	DB	04H
	DB	'5', 02H
	DB	00H
	DB	'r'
	DB	08H
xdata	ENDS
;	COMDAT xdata
xdata	SEGMENT
$stateUnwindMap$??$_Fput_v3@$0A@@?$num_put@DV?$ostreambuf_iterator@DU?$char_traits@D@std@@@std@@@std@@AEBA?AV?$ostreambuf_iterator@DU?$char_traits@D@std@@@1@V21@AEAVios_base@1@DPEBD_K_N@Z DB 08H
	DB	0aH
	DD	imagerel ??1locale@std@@QEAA@XZ
	DB	0c0H
	DB	03aH
	DD	imagerel ??1?$basic_string@DU?$char_traits@D@std@@V?$allocator@D@2@@std@@QEAA@XZ
	DB	0e0H
	DB	032H
	DD	imagerel ??1locale@std@@QEAA@XZ
	DB	0c0H
	DB	062H
	DD	imagerel ??1?$basic_string@DU?$char_traits@D@std@@V?$allocator@D@2@@std@@QEAA@XZ
	DB	041H
	DB	02H
xdata	ENDS
;	COMDAT xdata
xdata	SEGMENT
$cppxdata$??$_Fput_v3@$0A@@?$num_put@DV?$ostreambuf_iterator@DU?$char_traits@D@std@@@std@@@std@@AEBA?AV?$ostreambuf_iterator@DU?$char_traits@D@std@@@1@V21@AEAVios_base@1@DPEBD_K_N@Z DB 028H
	DD	imagerel $stateUnwindMap$??$_Fput_v3@$0A@@?$num_put@DV?$ostreambuf_iterator@DU?$char_traits@D@std@@@std@@@std@@AEBA?AV?$ostreambuf_iterator@DU?$char_traits@D@std@@@1@V21@AEAVios_base@1@DPEBD_K_N@Z
	DD	imagerel $ip2state$??$_Fput_v3@$0A@@?$num_put@DV?$ostreambuf_iterator@DU?$char_traits@D@std@@@std@@@std@@AEBA?AV?$ostreambuf_iterator@DU?$char_traits@D@std@@@1@V21@AEAVios_base@1@DPEBD_K_N@Z
xdata	ENDS
;	COMDAT xdata
xdata	SEGMENT
$unwind$??$_Fput_v3@$0A@@?$num_put@DV?$ostreambuf_iterator@DU?$char_traits@D@std@@@std@@@std@@AEBA?AV?$ostreambuf_iterator@DU?$char_traits@D@std@@@1@V21@AEAVios_base@1@DPEBD_K_N@Z DD 0b2a19H
	DD	020341cH
	DD	018011cH
	DD	0e00ef010H
	DD	0c00ad00cH
	DD	060077008H
	DD	05006H
	DD	imagerel __GSHandlerCheck_EH4
	DD	imagerel $cppxdata$??$_Fput_v3@$0A@@?$num_put@DV?$ostreambuf_iterator@DU?$char_traits@D@std@@@std@@@std@@AEBA?AV?$ostreambuf_iterator@DU?$char_traits@D@std@@@1@V21@AEAVios_base@1@DPEBD_K_N@Z
	DD	0b2H
xdata	ENDS
;	COMDAT xdata
xdata	SEGMENT
$unwind$??$_Allocate_for_capacity@$0A@@?$basic_string@DU?$char_traits@D@std@@V?$allocator@D@2@@std@@CAPEADAEAV?$allocator@D@1@AEA_K@Z DD 020601H
	DD	030023206H
xdata	ENDS
;	COMDAT xdata
xdata	SEGMENT
$unwind$??4?$ostreambuf_iterator@DU?$char_traits@D@std@@@std@@QEAAAEAV01@D@Z DD 020601H
	DD	030023206H
xdata	ENDS
;	COMDAT xdata
xdata	SEGMENT
$unwind$??_G?$num_put@DV?$ostreambuf_iterator@DU?$char_traits@D@std@@@std@@@std@@MEAAPEAXI@Z DD 020601H
	DD	030023206H
xdata	ENDS
;	COMDAT xdata
xdata	SEGMENT
$chain$1$?_Rep@?$num_put@DV?$ostreambuf_iterator@DU?$char_traits@D@std@@@std@@@std@@AEBA?AV?$ostreambuf_iterator@DU?$char_traits@D@std@@@2@V32@D_K@Z DD 021H
	DD	imagerel $LN42
	DD	imagerel $LN42+41
	DD	imagerel $unwind$?_Rep@?$num_put@DV?$ostreambuf_iterator@DU?$char_traits@D@std@@@std@@@std@@AEBA?AV?$ostreambuf_iterator@DU?$char_traits@D@std@@@2@V32@D_K@Z
xdata	ENDS
;	COMDAT xdata
xdata	SEGMENT
$chain$0$?_Rep@?$num_put@DV?$ostreambuf_iterator@DU?$char_traits@D@std@@@std@@@std@@AEBA?AV?$ostreambuf_iterator@DU?$char_traits@D@std@@@2@V32@D_K@Z DD 020521H
	DD	063405H
	DD	imagerel $LN42
	DD	imagerel $LN42+41
	DD	imagerel $unwind$?_Rep@?$num_put@DV?$ostreambuf_iterator@DU?$char_traits@D@std@@@std@@@std@@AEBA?AV?$ostreambuf_iterator@DU?$char_traits@D@std@@@2@V32@D_K@Z
xdata	ENDS
;	COMDAT xdata
xdata	SEGMENT
$unwind$?_Rep@?$num_put@DV?$ostreambuf_iterator@DU?$char_traits@D@std@@@std@@@std@@AEBA?AV?$ostreambuf_iterator@DU?$char_traits@D@std@@@2@V32@D_K@Z DD 081501H
	DD	097415H
	DD	086415H
	DD	075415H
	DD	0e0113215H
xdata	ENDS
;	COMDAT xdata
xdata	SEGMENT
$chain$1$?_Put@?$num_put@DV?$ostreambuf_iterator@DU?$char_traits@D@std@@@std@@@std@@AEBA?AV?$ostreambuf_iterator@DU?$char_traits@D@std@@@2@V32@PEBD_K@Z DD 021H
	DD	imagerel $LN42
	DD	imagerel $LN42+40
	DD	imagerel $unwind$?_Put@?$num_put@DV?$ostreambuf_iterator@DU?$char_traits@D@std@@@std@@@std@@AEBA?AV?$ostreambuf_iterator@DU?$char_traits@D@std@@@2@V32@PEBD_K@Z
xdata	ENDS
;	COMDAT xdata
xdata	SEGMENT
$chain$0$?_Put@?$num_put@DV?$ostreambuf_iterator@DU?$char_traits@D@std@@@std@@@std@@AEBA?AV?$ostreambuf_iterator@DU?$char_traits@D@std@@@2@V32@PEBD_K@Z DD 020521H
	DD	063405H
	DD	imagerel $LN42
	DD	imagerel $LN42+40
	DD	imagerel $unwind$?_Put@?$num_put@DV?$ostreambuf_iterator@DU?$char_traits@D@std@@@std@@@std@@AEBA?AV?$ostreambuf_iterator@DU?$char_traits@D@std@@@2@V32@PEBD_K@Z
xdata	ENDS
;	COMDAT xdata
xdata	SEGMENT
$unwind$?_Put@?$num_put@DV?$ostreambuf_iterator@DU?$char_traits@D@std@@@std@@@std@@AEBA?AV?$ostreambuf_iterator@DU?$char_traits@D@std@@@2@V32@PEBD_K@Z DD 081501H
	DD	097415H
	DD	086415H
	DD	075415H
	DD	0e0113215H
xdata	ENDS
;	COMDAT xdata
xdata	SEGMENT
$ip2state$?_Iput@?$num_put@DV?$ostreambuf_iterator@DU?$char_traits@D@std@@@std@@@std@@AEBA?AV?$ostreambuf_iterator@DU?$char_traits@D@std@@@2@V32@AEAVios_base@2@DPEAD_K@Z DB 012H
	DB	0a5H, 02H
	DB	02H
	DB	'd'
	DB	00H
	DB	'B'
	DB	04H
	DB	'<'
	DB	06H
	DB	'd'
	DB	04H
	DB	'V'
	DB	08H
	DB	0e5H, 010H
	DB	04H
	DB	'5', 02H
	DB	00H
	DB	'r'
	DB	08H
xdata	ENDS
;	COMDAT xdata
xdata	SEGMENT
$stateUnwindMap$?_Iput@?$num_put@DV?$ostreambuf_iterator@DU?$char_traits@D@std@@@std@@@std@@AEBA?AV?$ostreambuf_iterator@DU?$char_traits@D@std@@@2@V32@AEAVios_base@2@DPEAD_K@Z DB 08H
	DB	0aH
	DD	imagerel ??1locale@std@@QEAA@XZ
	DB	060H
	DB	03aH
	DD	imagerel ??1?$basic_string@DU?$char_traits@D@std@@V?$allocator@D@2@@std@@QEAA@XZ
	DB	0c0H
	DB	032H
	DD	imagerel ??1locale@std@@QEAA@XZ
	DB	060H
	DB	062H
	DD	imagerel ??1?$basic_string@DU?$char_traits@D@std@@V?$allocator@D@2@@std@@QEAA@XZ
	DB	01H
	DB	02H
xdata	ENDS
;	COMDAT xdata
xdata	SEGMENT
$cppxdata$?_Iput@?$num_put@DV?$ostreambuf_iterator@DU?$char_traits@D@std@@@std@@@std@@AEBA?AV?$ostreambuf_iterator@DU?$char_traits@D@std@@@2@V32@AEAVios_base@2@DPEAD_K@Z DB 028H
	DD	imagerel $stateUnwindMap$?_Iput@?$num_put@DV?$ostreambuf_iterator@DU?$char_traits@D@std@@@std@@@std@@AEBA?AV?$ostreambuf_iterator@DU?$char_traits@D@std@@@2@V32@AEAVios_base@2@DPEAD_K@Z
	DD	imagerel $ip2state$?_Iput@?$num_put@DV?$ostreambuf_iterator@DU?$char_traits@D@std@@@std@@@std@@AEBA?AV?$ostreambuf_iterator@DU?$char_traits@D@std@@@2@V32@AEAVios_base@2@DPEAD_K@Z
xdata	ENDS
;	COMDAT xdata
xdata	SEGMENT
$unwind$?_Iput@?$num_put@DV?$ostreambuf_iterator@DU?$char_traits@D@std@@@std@@@std@@AEBA?AV?$ostreambuf_iterator@DU?$char_traits@D@std@@@2@V32@AEAVios_base@2@DPEAD_K@Z DD 0b2a19H
	DD	01e341cH
	DD	016011cH
	DD	0e00ef010H
	DD	0c00ad00cH
	DD	060077008H
	DD	05006H
	DD	imagerel __GSHandlerCheck_EH4
	DD	imagerel $cppxdata$?_Iput@?$num_put@DV?$ostreambuf_iterator@DU?$char_traits@D@std@@@std@@@std@@AEBA?AV?$ostreambuf_iterator@DU?$char_traits@D@std@@@2@V32@AEAVios_base@2@DPEAD_K@Z
	DD	0a2H
xdata	ENDS
;	COMDAT xdata
xdata	SEGMENT
$unwind$?do_put@?$num_put@DV?$ostreambuf_iterator@DU?$char_traits@D@std@@@std@@@std@@MEBA?AV?$ostreambuf_iterator@DU?$char_traits@D@std@@@2@V32@AEAVios_base@2@DPEBX@Z DD 051d19H
	DD	014010bH
	DD	060037004H
	DD	03002H
	DD	imagerel __GSHandlerCheck
	DD	090H
xdata	ENDS
;	COMDAT xdata
xdata	SEGMENT
$ip2state$?do_put@?$num_put@DV?$ostreambuf_iterator@DU?$char_traits@D@std@@@std@@@std@@MEBA?AV?$ostreambuf_iterator@DU?$char_traits@D@std@@@2@V32@AEAVios_base@2@DO@Z DB 04H
	DB	'm', 04H
	DB	02H
	DB	09dH, 04H
	DB	00H
xdata	ENDS
;	COMDAT xdata
xdata	SEGMENT
$stateUnwindMap$?do_put@?$num_put@DV?$ostreambuf_iterator@DU?$char_traits@D@std@@@std@@@std@@MEBA?AV?$ostreambuf_iterator@DU?$char_traits@D@std@@@2@V32@AEAVios_base@2@DO@Z DB 02H
	DB	0aH
	DD	imagerel ??1?$basic_string@DU?$char_traits@D@std@@V?$allocator@D@2@@std@@QEAA@XZ
	DB	0c0H
xdata	ENDS
;	COMDAT xdata
xdata	SEGMENT
$cppxdata$?do_put@?$num_put@DV?$ostreambuf_iterator@DU?$char_traits@D@std@@@std@@@std@@MEBA?AV?$ostreambuf_iterator@DU?$char_traits@D@std@@@2@V32@AEAVios_base@2@DO@Z DB 028H
	DD	imagerel $stateUnwindMap$?do_put@?$num_put@DV?$ostreambuf_iterator@DU?$char_traits@D@std@@@std@@@std@@MEBA?AV?$ostreambuf_iterator@DU?$char_traits@D@std@@@2@V32@AEAVios_base@2@DO@Z
	DD	imagerel $ip2state$?do_put@?$num_put@DV?$ostreambuf_iterator@DU?$char_traits@D@std@@@std@@@std@@MEBA?AV?$ostreambuf_iterator@DU?$char_traits@D@std@@@2@V32@AEAVios_base@2@DO@Z
xdata	ENDS
;	COMDAT xdata
xdata	SEGMENT
$unwind$?do_put@?$num_put@DV?$ostreambuf_iterator@DU?$char_traits@D@std@@@std@@@std@@MEBA?AV?$ostreambuf_iterator@DU?$char_traits@D@std@@@2@V32@AEAVios_base@2@DO@Z DD 0b2d19H
	DD	09681fH
	DD	0140117H
	DD	0e009f00bH
	DD	07005c007H
	DD	030036004H
	DD	05002H
	DD	imagerel __GSHandlerCheck_EH4
	DD	imagerel $cppxdata$?do_put@?$num_put@DV?$ostreambuf_iterator@DU?$char_traits@D@std@@@std@@@std@@MEBA?AV?$ostreambuf_iterator@DU?$char_traits@D@std@@@2@V32@AEAVios_base@2@DO@Z
	DD	08aH
xdata	ENDS
;	COMDAT xdata
xdata	SEGMENT
$ip2state$?do_put@?$num_put@DV?$ostreambuf_iterator@DU?$char_traits@D@std@@@std@@@std@@MEBA?AV?$ostreambuf_iterator@DU?$char_traits@D@std@@@2@V32@AEAVios_base@2@DN@Z DB 04H
	DB	'm', 04H
	DB	02H
	DB	08dH, 04H
	DB	00H
xdata	ENDS
;	COMDAT xdata
xdata	SEGMENT
$stateUnwindMap$?do_put@?$num_put@DV?$ostreambuf_iterator@DU?$char_traits@D@std@@@std@@@std@@MEBA?AV?$ostreambuf_iterator@DU?$char_traits@D@std@@@2@V32@AEAVios_base@2@DN@Z DB 02H
	DB	0aH
	DD	imagerel ??1?$basic_string@DU?$char_traits@D@std@@V?$allocator@D@2@@std@@QEAA@XZ
	DB	0c0H
xdata	ENDS
;	COMDAT xdata
xdata	SEGMENT
$cppxdata$?do_put@?$num_put@DV?$ostreambuf_iterator@DU?$char_traits@D@std@@@std@@@std@@MEBA?AV?$ostreambuf_iterator@DU?$char_traits@D@std@@@2@V32@AEAVios_base@2@DN@Z DB 028H
	DD	imagerel $stateUnwindMap$?do_put@?$num_put@DV?$ostreambuf_iterator@DU?$char_traits@D@std@@@std@@@std@@MEBA?AV?$ostreambuf_iterator@DU?$char_traits@D@std@@@2@V32@AEAVios_base@2@DN@Z
	DD	imagerel $ip2state$?do_put@?$num_put@DV?$ostreambuf_iterator@DU?$char_traits@D@std@@@std@@@std@@MEBA?AV?$ostreambuf_iterator@DU?$char_traits@D@std@@@2@V32@AEAVios_base@2@DN@Z
xdata	ENDS
;	COMDAT xdata
xdata	SEGMENT
$unwind$?do_put@?$num_put@DV?$ostreambuf_iterator@DU?$char_traits@D@std@@@std@@@std@@MEBA?AV?$ostreambuf_iterator@DU?$char_traits@D@std@@@2@V32@AEAVios_base@2@DN@Z DD 0b2d19H
	DD	09681fH
	DD	0140117H
	DD	0e009f00bH
	DD	07005c007H
	DD	030036004H
	DD	05002H
	DD	imagerel __GSHandlerCheck_EH4
	DD	imagerel $cppxdata$?do_put@?$num_put@DV?$ostreambuf_iterator@DU?$char_traits@D@std@@@std@@@std@@MEBA?AV?$ostreambuf_iterator@DU?$char_traits@D@std@@@2@V32@AEAVios_base@2@DN@Z
	DD	08aH
xdata	ENDS
;	COMDAT xdata
xdata	SEGMENT
$unwind$?do_put@?$num_put@DV?$ostreambuf_iterator@DU?$char_traits@D@std@@@std@@@std@@MEBA?AV?$ostreambuf_iterator@DU?$char_traits@D@std@@@2@V32@AEAVios_base@2@D_K@Z DD 051d19H
	DD	016010bH
	DD	060037004H
	DD	03002H
	DD	imagerel __GSHandlerCheck
	DD	0a0H
xdata	ENDS
;	COMDAT xdata
xdata	SEGMENT
$unwind$?do_put@?$num_put@DV?$ostreambuf_iterator@DU?$char_traits@D@std@@@std@@@std@@MEBA?AV?$ostreambuf_iterator@DU?$char_traits@D@std@@@2@V32@AEAVios_base@2@D_J@Z DD 051d19H
	DD	016010bH
	DD	060037004H
	DD	03002H
	DD	imagerel __GSHandlerCheck
	DD	0a0H
xdata	ENDS
;	COMDAT xdata
xdata	SEGMENT
$unwind$?do_put@?$num_put@DV?$ostreambuf_iterator@DU?$char_traits@D@std@@@std@@@std@@MEBA?AV?$ostreambuf_iterator@DU?$char_traits@D@std@@@2@V32@AEAVios_base@2@DK@Z DD 051d19H
	DD	016010bH
	DD	060037004H
	DD	03002H
	DD	imagerel __GSHandlerCheck
	DD	0a0H
xdata	ENDS
;	COMDAT xdata
xdata	SEGMENT
$unwind$?do_put@?$num_put@DV?$ostreambuf_iterator@DU?$char_traits@D@std@@@std@@@std@@MEBA?AV?$ostreambuf_iterator@DU?$char_traits@D@std@@@2@V32@AEAVios_base@2@DJ@Z DD 051d19H
	DD	016010bH
	DD	060037004H
	DD	03002H
	DD	imagerel __GSHandlerCheck
	DD	0a0H
xdata	ENDS
;	COMDAT xdata
xdata	SEGMENT
$ip2state$?do_put@?$num_put@DV?$ostreambuf_iterator@DU?$char_traits@D@std@@@std@@@std@@MEBA?AV?$ostreambuf_iterator@DU?$char_traits@D@std@@@2@V32@AEAVios_base@2@D_N@Z DB 08H
	DB	01H, 02H
	DB	00H
	DB	'D'
	DB	02H
	DB	0a8H
	DB	04H
	DB	089H, 05H
	DB	00H
xdata	ENDS
;	COMDAT xdata
xdata	SEGMENT
$stateUnwindMap$?do_put@?$num_put@DV?$ostreambuf_iterator@DU?$char_traits@D@std@@@std@@@std@@MEBA?AV?$ostreambuf_iterator@DU?$char_traits@D@std@@@2@V32@AEAVios_base@2@D_N@Z DB 04H
	DB	0aH
	DD	imagerel ??1locale@std@@QEAA@XZ
	DB	01H
	DB	02H
	DB	042H
	DD	imagerel ??1?$basic_string@DU?$char_traits@D@std@@V?$allocator@D@2@@std@@QEAA@XZ
	DB	0b0H
xdata	ENDS
;	COMDAT xdata
xdata	SEGMENT
$cppxdata$?do_put@?$num_put@DV?$ostreambuf_iterator@DU?$char_traits@D@std@@@std@@@std@@MEBA?AV?$ostreambuf_iterator@DU?$char_traits@D@std@@@2@V32@AEAVios_base@2@D_N@Z DB 028H
	DD	imagerel $stateUnwindMap$?do_put@?$num_put@DV?$ostreambuf_iterator@DU?$char_traits@D@std@@@std@@@std@@MEBA?AV?$ostreambuf_iterator@DU?$char_traits@D@std@@@2@V32@AEAVios_base@2@D_N@Z
	DD	imagerel $ip2state$?do_put@?$num_put@DV?$ostreambuf_iterator@DU?$char_traits@D@std@@@std@@@std@@MEBA?AV?$ostreambuf_iterator@DU?$char_traits@D@std@@@2@V32@AEAVios_base@2@D_N@Z
xdata	ENDS
;	COMDAT xdata
xdata	SEGMENT
$unwind$?do_put@?$num_put@DV?$ostreambuf_iterator@DU?$char_traits@D@std@@@std@@@std@@MEBA?AV?$ostreambuf_iterator@DU?$char_traits@D@std@@@2@V32@AEAVios_base@2@D_N@Z DD 0e3019H
	DD	0b7822H
	DD	0c681eH
	DD	01b011aH
	DD	0e00df00fH
	DD	0c009d00bH
	DD	060067007H
	DD	050043005H
	DD	imagerel __GSHandlerCheck_EH4
	DD	imagerel $cppxdata$?do_put@?$num_put@DV?$ostreambuf_iterator@DU?$char_traits@D@std@@@std@@@std@@MEBA?AV?$ostreambuf_iterator@DU?$char_traits@D@std@@@2@V32@AEAVios_base@2@D_N@Z
	DD	0a2H
xdata	ENDS
;	COMDAT xdata
xdata	SEGMENT
$unwind$?put@?$num_put@DV?$ostreambuf_iterator@DU?$char_traits@D@std@@@std@@@std@@QEBA?AV?$ostreambuf_iterator@DU?$char_traits@D@std@@@2@V32@AEAVios_base@2@DJ@Z DD 020601H
	DD	030027206H
xdata	ENDS
;	COMDAT xdata
xdata	SEGMENT
$unwind$?dtor$0@?0??_Getcat@?$num_put@DV?$ostreambuf_iterator@DU?$char_traits@D@std@@@std@@@std@@SA_KPEAPEBVfacet@locale@2@PEBV42@@Z@4HA DD 020601H
	DD	050023206H
xdata	ENDS
;	COMDAT xdata
xdata	SEGMENT
$ip2state$?_Getcat@?$num_put@DV?$ostreambuf_iterator@DU?$char_traits@D@std@@@std@@@std@@SA_KPEAPEBVfacet@locale@2@PEBV42@@Z DB 08H
	DB	08eH
	DB	00H
	DB	09H, 02H
	DB	010H
	DB	'V'
	DB	012H
	DB	091H, 02H
	DB	010H
xdata	ENDS
;	COMDAT xdata
xdata	SEGMENT
$stateUnwindMap$?_Getcat@?$num_put@DV?$ostreambuf_iterator@DU?$char_traits@D@std@@@std@@@std@@SA_KPEAPEBVfacet@locale@2@PEBV42@@Z DB 012H
	DB	0eH
	DD	imagerel ?dtor$0@?0??_Getcat@?$num_put@DV?$ostreambuf_iterator@DU?$char_traits@D@std@@@std@@@std@@SA_KPEAPEBVfacet@locale@2@PEBV42@@Z@4HA
	DB	02aH
	DD	imagerel ??1_Lockit@std@@QEAA@XZ
	DB	040H
	DB	036H
	DD	imagerel ?dtor$3@?0??_Getcat@?$num_put@DV?$ostreambuf_iterator@DU?$char_traits@D@std@@@std@@@std@@SA_KPEAPEBVfacet@locale@2@PEBV42@@Z@4HA
	DB	02eH
	DD	imagerel ?dtor$4@?0??_Getcat@?$num_put@DV?$ostreambuf_iterator@DU?$char_traits@D@std@@@std@@@std@@SA_KPEAPEBVfacet@locale@2@PEBV42@@Z@4HA
	DB	02eH
	DD	imagerel ?dtor$5@?0??_Getcat@?$num_put@DV?$ostreambuf_iterator@DU?$char_traits@D@std@@@std@@@std@@SA_KPEAPEBVfacet@locale@2@PEBV42@@Z@4HA
	DB	02eH
	DD	imagerel ?dtor$6@?0??_Getcat@?$num_put@DV?$ostreambuf_iterator@DU?$char_traits@D@std@@@std@@@std@@SA_KPEAPEBVfacet@locale@2@PEBV42@@Z@4HA
	DB	02eH
	DD	imagerel ?dtor$7@?0??_Getcat@?$num_put@DV?$ostreambuf_iterator@DU?$char_traits@D@std@@@std@@@std@@SA_KPEAPEBVfacet@locale@2@PEBV42@@Z@4HA
	DB	02eH
	DD	imagerel ?dtor$8@?0??_Getcat@?$num_put@DV?$ostreambuf_iterator@DU?$char_traits@D@std@@@std@@@std@@SA_KPEAPEBVfacet@locale@2@PEBV42@@Z@4HA
	DB	0adH
	DB	02H
	DD	imagerel __std_terminate
xdata	ENDS
;	COMDAT xdata
xdata	SEGMENT
$cppxdata$?_Getcat@?$num_put@DV?$ostreambuf_iterator@DU?$char_traits@D@std@@@std@@@std@@SA_KPEAPEBVfacet@locale@2@PEBV42@@Z DB 028H
	DD	imagerel $stateUnwindMap$?_Getcat@?$num_put@DV?$ostreambuf_iterator@DU?$char_traits@D@std@@@std@@@std@@SA_KPEAPEBVfacet@locale@2@PEBV42@@Z
	DD	imagerel $ip2state$?_Getcat@?$num_put@DV?$ostreambuf_iterator@DU?$char_traits@D@std@@@std@@@std@@SA_KPEAPEBVfacet@locale@2@PEBV42@@Z
xdata	ENDS
;	COMDAT xdata
xdata	SEGMENT
$unwind$?_Getcat@?$num_put@DV?$ostreambuf_iterator@DU?$char_traits@D@std@@@std@@@std@@SA_KPEAPEBVfacet@locale@2@PEBV42@@Z DD 0b2011H
	DD	0197420H
	DD	0186420H
	DD	0173420H
	DD	0120120H
	DD	0e012f014H
	DD	05010H
	DD	imagerel __CxxFrameHandler4
	DD	imagerel $cppxdata$?_Getcat@?$num_put@DV?$ostreambuf_iterator@DU?$char_traits@D@std@@@std@@@std@@SA_KPEAPEBVfacet@locale@2@PEBV42@@Z
xdata	ENDS
;	COMDAT xdata
xdata	SEGMENT
$ip2state$??$use_facet@V?$num_put@DV?$ostreambuf_iterator@DU?$char_traits@D@std@@@std@@@std@@@std@@YAAEBV?$num_put@DV?$ostreambuf_iterator@DU?$char_traits@D@std@@@std@@@0@AEBVlocale@0@@Z DB 08H
	DB	'e', 02H
	DB	02H
	DB	'~'
	DB	04H
	DB	'6'
	DB	00H
	DB	'0'
	DB	02H
xdata	ENDS
;	COMDAT xdata
xdata	SEGMENT
$stateUnwindMap$??$use_facet@V?$num_put@DV?$ostreambuf_iterator@DU?$char_traits@D@std@@@std@@@std@@@std@@YAAEBV?$num_put@DV?$ostreambuf_iterator@DU?$char_traits@D@std@@@std@@@0@AEBVlocale@0@@Z DB 04H
	DB	0aH
	DD	imagerel ??1_Lockit@std@@QEAA@XZ
	DB	0b0H
	DB	032H
	DD	imagerel ??1?$unique_ptr@V_Facet_base@std@@U?$default_delete@V_Facet_base@std@@@2@@std@@QEAA@XZ
	DB	0a0H
xdata	ENDS
;	COMDAT xdata
xdata	SEGMENT
$cppxdata$??$use_facet@V?$num_put@DV?$ostreambuf_iterator@DU?$char_traits@D@std@@@std@@@std@@@std@@YAAEBV?$num_put@DV?$ostreambuf_iterator@DU?$char_traits@D@std@@@std@@@0@AEBVlocale@0@@Z DB 028H
	DD	imagerel $stateUnwindMap$??$use_facet@V?$num_put@DV?$ostreambuf_iterator@DU?$char_traits@D@std@@@std@@@std@@@std@@YAAEBV?$num_put@DV?$ostreambuf_iterator@DU?$char_traits@D@std@@@std@@@0@AEBVlocale@0@@Z
	DD	imagerel $ip2state$??$use_facet@V?$num_put@DV?$ostreambuf_iterator@DU?$char_traits@D@std@@@std@@@std@@@std@@YAAEBV?$num_put@DV?$ostreambuf_iterator@DU?$char_traits@D@std@@@std@@@0@AEBVlocale@0@@Z
xdata	ENDS
;	COMDAT xdata
xdata	SEGMENT
$unwind$??$use_facet@V?$num_put@DV?$ostreambuf_iterator@DU?$char_traits@D@std@@@std@@@std@@@std@@YAAEBV?$num_put@DV?$ostreambuf_iterator@DU?$char_traits@D@std@@@std@@@0@AEBVlocale@0@@Z DD 060b11H
	DD	0e007320bH
	DD	060047005H
	DD	030025003H
	DD	imagerel __CxxFrameHandler4
	DD	imagerel $cppxdata$??$use_facet@V?$num_put@DV?$ostreambuf_iterator@DU?$char_traits@D@std@@@std@@@std@@@std@@YAAEBV?$num_put@DV?$ostreambuf_iterator@DU?$char_traits@D@std@@@std@@@0@AEBVlocale@0@@Z
xdata	ENDS
;	COMDAT xdata
xdata	SEGMENT
$unwind$??$_Construct@$01PEBD@?$basic_string@DU?$char_traits@D@std@@V?$allocator@D@2@@std@@AEAAXQEBD_K@Z DD 081401H
	DD	086414H
	DD	075414H
	DD	063414H
	DD	070103214H
xdata	ENDS
;	COMDAT xdata
xdata	SEGMENT
$chain$1$??$_Construct@$00PEBD@?$basic_string@DU?$char_traits@D@std@@V?$allocator@D@2@@std@@AEAAXQEBD_K@Z DD 021H
	DD	imagerel $LN32
	DD	imagerel $LN32+81
	DD	imagerel $unwind$??$_Construct@$00PEBD@?$basic_string@DU?$char_traits@D@std@@V?$allocator@D@2@@std@@AEAAXQEBD_K@Z
xdata	ENDS
;	COMDAT xdata
xdata	SEGMENT
$chain$0$??$_Construct@$00PEBD@?$basic_string@DU?$char_traits@D@std@@V?$allocator@D@2@@std@@AEAAXQEBD_K@Z DD 020521H
	DD	063405H
	DD	imagerel $LN32
	DD	imagerel $LN32+81
	DD	imagerel $unwind$??$_Construct@$00PEBD@?$basic_string@DU?$char_traits@D@std@@V?$allocator@D@2@@std@@AEAAXQEBD_K@Z
xdata	ENDS
;	COMDAT xdata
xdata	SEGMENT
$unwind$??$_Construct@$00PEBD@?$basic_string@DU?$char_traits@D@std@@V?$allocator@D@2@@std@@AEAAXQEBD_K@Z DD 081501H
	DD	097415H
	DD	086415H
	DD	075415H
	DD	0e0113215H
xdata	ENDS
;	COMDAT xdata
xdata	SEGMENT
$ip2state$??1sentry@?$basic_ostream@DU?$char_traits@D@std@@@std@@QEAA@XZ DB 02H
	DB	'd'
	DB	02H
xdata	ENDS
;	COMDAT xdata
xdata	SEGMENT
$stateUnwindMap$??1sentry@?$basic_ostream@DU?$char_traits@D@std@@@std@@QEAA@XZ DB 02H
	DB	0eH
	DD	imagerel __std_terminate
xdata	ENDS
;	COMDAT xdata
xdata	SEGMENT
$cppxdata$??1sentry@?$basic_ostream@DU?$char_traits@D@std@@@std@@QEAA@XZ DB 068H
	DD	imagerel $stateUnwindMap$??1sentry@?$basic_ostream@DU?$char_traits@D@std@@@std@@QEAA@XZ
	DD	imagerel $ip2state$??1sentry@?$basic_ostream@DU?$char_traits@D@std@@@std@@QEAA@XZ
xdata	ENDS
;	COMDAT xdata
xdata	SEGMENT
$unwind$??1sentry@?$basic_ostream@DU?$char_traits@D@std@@@std@@QEAA@XZ DD 020619H
	DD	030023206H
	DD	imagerel __CxxFrameHandler4
	DD	imagerel $cppxdata$??1sentry@?$basic_ostream@DU?$char_traits@D@std@@@std@@QEAA@XZ
xdata	ENDS
;	COMDAT xdata
xdata	SEGMENT
$ip2state$??0sentry@?$basic_ostream@DU?$char_traits@D@std@@@std@@QEAA@AEAV12@@Z DB 04H
	DB	'X'
	DB	00H
	DB	'J'
	DB	02H
xdata	ENDS
;	COMDAT xdata
xdata	SEGMENT
$stateUnwindMap$??0sentry@?$basic_ostream@DU?$char_traits@D@std@@@std@@QEAA@AEAV12@@Z DB 02H
	DB	0cH
	DD	imagerel ??1_Sentry_base@?$basic_ostream@DU?$char_traits@D@std@@@std@@QEAA@XZ
	DB	060H
xdata	ENDS
;	COMDAT xdata
xdata	SEGMENT
$cppxdata$??0sentry@?$basic_ostream@DU?$char_traits@D@std@@@std@@QEAA@AEAV12@@Z DB 028H
	DD	imagerel $stateUnwindMap$??0sentry@?$basic_ostream@DU?$char_traits@D@std@@@std@@QEAA@AEAV12@@Z
	DD	imagerel $ip2state$??0sentry@?$basic_ostream@DU?$char_traits@D@std@@@std@@QEAA@AEAV12@@Z
xdata	ENDS
;	COMDAT xdata
xdata	SEGMENT
$unwind$??0sentry@?$basic_ostream@DU?$char_traits@D@std@@@std@@QEAA@AEAV12@@Z DD 040f11H
	DD	07340fH
	DD	0700b320fH
	DD	imagerel __CxxFrameHandler4
	DD	imagerel $cppxdata$??0sentry@?$basic_ostream@DU?$char_traits@D@std@@@std@@QEAA@AEAV12@@Z
xdata	ENDS
;	COMDAT xdata
xdata	SEGMENT
$ip2state$??1_Sentry_base@?$basic_ostream@DU?$char_traits@D@std@@@std@@QEAA@XZ DB 02H
	DB	'6'
	DB	00H
xdata	ENDS
;	COMDAT xdata
xdata	SEGMENT
$cppxdata$??1_Sentry_base@?$basic_ostream@DU?$char_traits@D@std@@@std@@QEAA@XZ DB 060H
	DD	imagerel $ip2state$??1_Sentry_base@?$basic_ostream@DU?$char_traits@D@std@@@std@@QEAA@XZ
xdata	ENDS
;	COMDAT xdata
xdata	SEGMENT
$unwind$??1_Sentry_base@?$basic_ostream@DU?$char_traits@D@std@@@std@@QEAA@XZ DD 010419H
	DD	04204H
	DD	imagerel __CxxFrameHandler4
	DD	imagerel $cppxdata$??1_Sentry_base@?$basic_ostream@DU?$char_traits@D@std@@@std@@QEAA@XZ
xdata	ENDS
;	COMDAT xdata
xdata	SEGMENT
$unwind$??0_Sentry_base@?$basic_ostream@DU?$char_traits@D@std@@@std@@QEAA@AEAV12@@Z DD 020601H
	DD	030023206H
xdata	ENDS
;	COMDAT xdata
xdata	SEGMENT
$unwind$??$_Get_index@$0A@@id@locale@std@@QEAA_KXZ DD 020601H
	DD	030023206H
xdata	ENDS
;	COMDAT voltbl
voltbl	SEGMENT
_volmd	DB	00H
voltbl	ENDS
;	COMDAT xdata
xdata	SEGMENT
$unwind$?catch$4@?0???$?6U?$char_traits@D@std@@@std@@YAAEAV?$basic_ostream@DU?$char_traits@D@std@@@0@AEAV10@D@Z@4HA DD 020a01H
	DD	05006320aH
xdata	ENDS
;	COMDAT xdata
xdata	SEGMENT
$ip2state$??$?6U?$char_traits@D@std@@@std@@YAAEAV?$basic_ostream@DU?$char_traits@D@std@@@0@AEAV10@D@Z DB 0cH
	DB	098H
	DB	00H
	DB	'Z'
	DB	02H
	DB	0f9H, 02H
	DB	06H
	DB	'M', 03H
	DB	04H
	DB	0f6H
	DB	0aH
	DB	0c0H
	DB	04H
xdata	ENDS
;	COMDAT xdata
xdata	SEGMENT
$handlerMap$??$?6U?$char_traits@D@std@@@std@@YAAEAV?$basic_ostream@DU?$char_traits@D@std@@@0@AEAV10@D@Z DB 02H
	DB	011H
	DB	080H
	DD	imagerel ?catch$4@?0???$?6U?$char_traits@D@std@@@std@@YAAEAV?$basic_ostream@DU?$char_traits@D@std@@@0@AEAV10@D@Z@4HA
	DB	'1', 08H
xdata	ENDS
;	COMDAT xdata
xdata	SEGMENT
$tryMap$??$?6U?$char_traits@D@std@@@std@@YAAEAV?$basic_ostream@DU?$char_traits@D@std@@@0@AEAV10@D@Z DB 02H
	DB	04H
	DB	04H
	DB	06H
	DD	imagerel $handlerMap$??$?6U?$char_traits@D@std@@@std@@YAAEAV?$basic_ostream@DU?$char_traits@D@std@@@0@AEAV10@D@Z
xdata	ENDS
;	COMDAT xdata
xdata	SEGMENT
$stateUnwindMap$??$?6U?$char_traits@D@std@@@std@@YAAEAV?$basic_ostream@DU?$char_traits@D@std@@@0@AEAV10@D@Z DB 0aH
	DB	0aH
	DD	imagerel ??1_Sentry_base@?$basic_ostream@DU?$char_traits@D@std@@@std@@QEAA@XZ
	DB	040H
	DB	03aH
	DD	imagerel ??1sentry@?$basic_ostream@DU?$char_traits@D@std@@@std@@QEAA@XZ
	DB	040H
	DB	030H
	DB	038H
	DB	07eH
	DD	imagerel __std_terminate
xdata	ENDS
;	COMDAT xdata
xdata	SEGMENT
$cppxdata$??$?6U?$char_traits@D@std@@@std@@YAAEAV?$basic_ostream@DU?$char_traits@D@std@@@0@AEAV10@D@Z DB 038H
	DD	imagerel $stateUnwindMap$??$?6U?$char_traits@D@std@@@std@@YAAEAV?$basic_ostream@DU?$char_traits@D@std@@@0@AEAV10@D@Z
	DD	imagerel $tryMap$??$?6U?$char_traits@D@std@@@std@@YAAEAV?$basic_ostream@DU?$char_traits@D@std@@@0@AEAV10@D@Z
	DD	imagerel $ip2state$??$?6U?$char_traits@D@std@@@std@@YAAEAV?$basic_ostream@DU?$char_traits@D@std@@@0@AEAV10@D@Z
xdata	ENDS
;	COMDAT xdata
xdata	SEGMENT
$unwind$??$?6U?$char_traits@D@std@@@std@@YAAEAV?$basic_ostream@DU?$char_traits@D@std@@@0@AEAV10@D@Z DD 0a1c19H
	DD	017641cH
	DD	015341cH
	DD	0f018d21cH
	DD	0d014e016H
	DD	07010c012H
	DD	imagerel __CxxFrameHandler4
	DD	imagerel $cppxdata$??$?6U?$char_traits@D@std@@@std@@YAAEAV?$basic_ostream@DU?$char_traits@D@std@@@0@AEAV10@D@Z
xdata	ENDS
;	COMDAT voltbl
voltbl	SEGMENT
_volmd	DB	00H
voltbl	ENDS
;	COMDAT xdata
xdata	SEGMENT
$unwind$?catch$4@?0???$?6U?$char_traits@D@std@@@std@@YAAEAV?$basic_ostream@DU?$char_traits@D@std@@@0@AEAV10@PEBD@Z@4HA DD 020a01H
	DD	05006320aH
xdata	ENDS
;	COMDAT xdata
xdata	SEGMENT
$ip2state$??$?6U?$char_traits@D@std@@@std@@YAAEAV?$basic_ostream@DU?$char_traits@D@std@@@0@AEAV10@PEBD@Z DB 0cH
	DB	0dcH
	DB	00H
	DB	'Z'
	DB	02H
	DB	'M', 02H
	DB	06H
	DB	'9', 03H
	DB	04H
	DB	0d0H
	DB	0aH
	DB	0bcH
	DB	04H
xdata	ENDS
;	COMDAT xdata
xdata	SEGMENT
$handlerMap$??$?6U?$char_traits@D@std@@@std@@YAAEAV?$basic_ostream@DU?$char_traits@D@std@@@0@AEAV10@PEBD@Z DB 02H
	DB	011H
	DB	080H
	DD	imagerel ?catch$4@?0???$?6U?$char_traits@D@std@@@std@@YAAEAV?$basic_ostream@DU?$char_traits@D@std@@@0@AEAV10@PEBD@Z@4HA
	DB	0f9H, 07H
xdata	ENDS
;	COMDAT xdata
xdata	SEGMENT
$tryMap$??$?6U?$char_traits@D@std@@@std@@YAAEAV?$basic_ostream@DU?$char_traits@D@std@@@0@AEAV10@PEBD@Z DB 02H
	DB	04H
	DB	04H
	DB	06H
	DD	imagerel $handlerMap$??$?6U?$char_traits@D@std@@@std@@YAAEAV?$basic_ostream@DU?$char_traits@D@std@@@0@AEAV10@PEBD@Z
xdata	ENDS
;	COMDAT xdata
xdata	SEGMENT
$stateUnwindMap$??$?6U?$char_traits@D@std@@@std@@YAAEAV?$basic_ostream@DU?$char_traits@D@std@@@0@AEAV10@PEBD@Z DB 0aH
	DB	0aH
	DD	imagerel ??1_Sentry_base@?$basic_ostream@DU?$char_traits@D@std@@@std@@QEAA@XZ
	DB	040H
	DB	03aH
	DD	imagerel ??1sentry@?$basic_ostream@DU?$char_traits@D@std@@@std@@QEAA@XZ
	DB	040H
	DB	030H
	DB	038H
	DB	07eH
	DD	imagerel __std_terminate
xdata	ENDS
;	COMDAT xdata
xdata	SEGMENT
$cppxdata$??$?6U?$char_traits@D@std@@@std@@YAAEAV?$basic_ostream@DU?$char_traits@D@std@@@0@AEAV10@PEBD@Z DB 038H
	DD	imagerel $stateUnwindMap$??$?6U?$char_traits@D@std@@@std@@YAAEAV?$basic_ostream@DU?$char_traits@D@std@@@0@AEAV10@PEBD@Z
	DD	imagerel $tryMap$??$?6U?$char_traits@D@std@@@std@@YAAEAV?$basic_ostream@DU?$char_traits@D@std@@@0@AEAV10@PEBD@Z
	DD	imagerel $ip2state$??$?6U?$char_traits@D@std@@@std@@YAAEAV?$basic_ostream@DU?$char_traits@D@std@@@0@AEAV10@PEBD@Z
xdata	ENDS
;	COMDAT xdata
xdata	SEGMENT
$unwind$??$?6U?$char_traits@D@std@@@std@@YAAEAV?$basic_ostream@DU?$char_traits@D@std@@@0@AEAV10@PEBD@Z DD 0a1c19H
	DD	017641cH
	DD	015341cH
	DD	0f018d21cH
	DD	0d014e016H
	DD	07010c012H
	DD	imagerel __CxxFrameHandler4
	DD	imagerel $cppxdata$??$?6U?$char_traits@D@std@@@std@@YAAEAV?$basic_ostream@DU?$char_traits@D@std@@@0@AEAV10@PEBD@Z
xdata	ENDS
;	COMDAT voltbl
voltbl	SEGMENT
_volmd	DB	00H
voltbl	ENDS
;	COMDAT xdata
xdata	SEGMENT
$unwind$?catch$10@?0??flush@?$basic_ostream@DU?$char_traits@D@std@@@std@@QEAAAEAV12@XZ@4HA DD 020a01H
	DD	05006320aH
xdata	ENDS
;	COMDAT xdata
xdata	SEGMENT
$ip2state$?flush@?$basic_ostream@DU?$char_traits@D@std@@@std@@QEAAAEAV12@XZ DB 08H
	DB	'h'
	DB	00H
	DB	'8'
	DB	04H
	DB	011H, 02H
	DB	08H
	DB	0acH
	DB	02H
xdata	ENDS
;	COMDAT xdata
xdata	SEGMENT
$handlerMap$?flush@?$basic_ostream@DU?$char_traits@D@std@@@std@@QEAAAEAV12@XZ DB 02H
	DB	011H
	DB	080H
	DD	imagerel ?catch$10@?0??flush@?$basic_ostream@DU?$char_traits@D@std@@@std@@QEAAAEAV12@XZ@4HA
	DB	0d8H
xdata	ENDS
;	COMDAT xdata
xdata	SEGMENT
$tryMap$?flush@?$basic_ostream@DU?$char_traits@D@std@@@std@@QEAAAEAV12@XZ DB 02H
	DB	02H
	DB	02H
	DB	04H
	DD	imagerel $handlerMap$?flush@?$basic_ostream@DU?$char_traits@D@std@@@std@@QEAAAEAV12@XZ
xdata	ENDS
;	COMDAT xdata
xdata	SEGMENT
$stateUnwindMap$?flush@?$basic_ostream@DU?$char_traits@D@std@@@std@@QEAAAEAV12@XZ DB 08H
	DB	0aH
	DD	imagerel ??1sentry@?$basic_ostream@DU?$char_traits@D@std@@@std@@QEAA@XZ
	DB	040H
	DB	030H
	DB	038H
	DB	04eH
	DD	imagerel __std_terminate
xdata	ENDS
;	COMDAT xdata
xdata	SEGMENT
$cppxdata$?flush@?$basic_ostream@DU?$char_traits@D@std@@@std@@QEAAAEAV12@XZ DB 038H
	DD	imagerel $stateUnwindMap$?flush@?$basic_ostream@DU?$char_traits@D@std@@@std@@QEAAAEAV12@XZ
	DD	imagerel $tryMap$?flush@?$basic_ostream@DU?$char_traits@D@std@@@std@@QEAAAEAV12@XZ
	DD	imagerel $ip2state$?flush@?$basic_ostream@DU?$char_traits@D@std@@@std@@QEAAAEAV12@XZ
xdata	ENDS
;	COMDAT xdata
xdata	SEGMENT
$unwind$?flush@?$basic_ostream@DU?$char_traits@D@std@@@std@@QEAAAEAV12@XZ DD 061419H
	DD	0136414H
	DD	0123414H
	DD	07010d214H
	DD	imagerel __CxxFrameHandler4
	DD	imagerel $cppxdata$?flush@?$basic_ostream@DU?$char_traits@D@std@@@std@@QEAAAEAV12@XZ
xdata	ENDS
;	COMDAT voltbl
voltbl	SEGMENT
_volmd	DB	00H
voltbl	ENDS
;	COMDAT xdata
xdata	SEGMENT
$unwind$?catch$8@?0???6?$basic_ostream@DU?$char_traits@D@std@@@std@@QEAAAEAV01@H@Z@4HA DD 020a01H
	DD	05006520aH
xdata	ENDS
;	COMDAT xdata
xdata	SEGMENT
$ip2state$??6?$basic_ostream@DU?$char_traits@D@std@@@std@@QEAAAEAV01@H@Z DB 012H
	DB	084H
	DB	00H
	DB	'Z'
	DB	02H
	DB	'=', 03H
	DB	08H
	DB	090H
	DB	0aH
	DB	'0'
	DB	06H
	DB	0eaH
	DB	0cH
	DB	0f4H
	DB	010H
	DB	'4'
	DB	08H
	DB	086H
	DB	04H
xdata	ENDS
;	COMDAT xdata
xdata	SEGMENT
$handlerMap$??6?$basic_ostream@DU?$char_traits@D@std@@@std@@QEAAAEAV01@H@Z DB 02H
	DB	011H
	DB	080H
	DD	imagerel ?catch$8@?0???6?$basic_ostream@DU?$char_traits@D@std@@@std@@QEAAAEAV01@H@Z@4HA
	DB	0b9H, 08H
xdata	ENDS
;	COMDAT xdata
xdata	SEGMENT
$tryMap$??6?$basic_ostream@DU?$char_traits@D@std@@@std@@QEAAAEAV01@H@Z DB 02H
	DB	0aH
	DB	0aH
	DB	0cH
	DD	imagerel $handlerMap$??6?$basic_ostream@DU?$char_traits@D@std@@@std@@QEAAAEAV01@H@Z
xdata	ENDS
;	COMDAT xdata
xdata	SEGMENT
$stateUnwindMap$??6?$basic_ostream@DU?$char_traits@D@std@@@std@@QEAAAEAV01@H@Z DB 010H
	DB	0aH
	DD	imagerel ??1_Sentry_base@?$basic_ostream@DU?$char_traits@D@std@@@std@@QEAA@XZ
	DB	0a0H
	DB	03aH
	DD	imagerel ??1sentry@?$basic_ostream@DU?$char_traits@D@std@@@std@@QEAA@XZ
	DB	0a0H
	DB	032H
	DD	imagerel ??1locale@std@@QEAA@XZ
	DB	0c0H
	DB	032H
	DD	imagerel ??1_Lockit@std@@QEAA@XZ
	DB	060H
	DB	032H
	DD	imagerel ??1?$unique_ptr@V_Facet_base@std@@U?$default_delete@V_Facet_base@std@@@2@@std@@QEAA@XZ
	DB	0e1H
	DB	03H
	DB	0c8H
	DB	0d0H
	DB	02dH
	DB	02H
	DD	imagerel __std_terminate
xdata	ENDS
;	COMDAT xdata
xdata	SEGMENT
$cppxdata$??6?$basic_ostream@DU?$char_traits@D@std@@@std@@QEAAAEAV01@H@Z DB 038H
	DD	imagerel $stateUnwindMap$??6?$basic_ostream@DU?$char_traits@D@std@@@std@@QEAAAEAV01@H@Z
	DD	imagerel $tryMap$??6?$basic_ostream@DU?$char_traits@D@std@@@std@@QEAAAEAV01@H@Z
	DD	imagerel $ip2state$??6?$basic_ostream@DU?$char_traits@D@std@@@std@@QEAAAEAV01@H@Z
xdata	ENDS
;	COMDAT xdata
xdata	SEGMENT
$unwind$??6?$basic_ostream@DU?$char_traits@D@std@@@std@@QEAAAEAV01@H@Z DD 091b19H
	DD	014011bH
	DD	0e012f014H
	DD	0c00ed010H
	DD	0600b700cH
	DD	0300aH
	DD	imagerel __CxxFrameHandler4
	DD	imagerel $cppxdata$??6?$basic_ostream@DU?$char_traits@D@std@@@std@@QEAAAEAV01@H@Z
xdata	ENDS
;	COMDAT voltbl
voltbl	SEGMENT
_volmd	DB	00H
voltbl	ENDS
;	COMDAT xdata
xdata	SEGMENT
$ip2state$?catch$0@?0??_Osfx@?$basic_ostream@DU?$char_traits@D@std@@@std@@QEAAXXZ@4HA DB 00H
xdata	ENDS
;	COMDAT xdata
xdata	SEGMENT
$stateUnwindMap$?catch$0@?0??_Osfx@?$basic_ostream@DU?$char_traits@D@std@@@std@@QEAAXXZ@4HA DB 02H
	DB	08H
xdata	ENDS
;	COMDAT xdata
xdata	SEGMENT
$cppxdata$?catch$0@?0??_Osfx@?$basic_ostream@DU?$char_traits@D@std@@@std@@QEAAXXZ@4HA DB 069H
	DD	imagerel $stateUnwindMap$?catch$0@?0??_Osfx@?$basic_ostream@DU?$char_traits@D@std@@@std@@QEAAXXZ@4HA
	DD	imagerel $ip2state$?catch$0@?0??_Osfx@?$basic_ostream@DU?$char_traits@D@std@@@std@@QEAAXXZ@4HA
	DB	'p'
xdata	ENDS
;	COMDAT xdata
xdata	SEGMENT
$unwind$?catch$0@?0??_Osfx@?$basic_ostream@DU?$char_traits@D@std@@@std@@QEAAXXZ@4HA DD 020a19H
	DD	05006320aH
	DD	imagerel __CxxFrameHandler4
	DD	imagerel $cppxdata$?catch$0@?0??_Osfx@?$basic_ostream@DU?$char_traits@D@std@@@std@@QEAAXXZ@4HA
xdata	ENDS
;	COMDAT xdata
xdata	SEGMENT
$ip2state$?_Osfx@?$basic_ostream@DU?$char_traits@D@std@@@std@@QEAAXXZ DB 04H
	DB	'L'
	DB	02H
	DB	')', 02H
	DB	00H
xdata	ENDS
;	COMDAT xdata
xdata	SEGMENT
$handlerMap$?_Osfx@?$basic_ostream@DU?$char_traits@D@std@@@std@@QEAAXXZ DB 02H
	DB	011H
	DB	080H
	DD	imagerel ?catch$0@?0??_Osfx@?$basic_ostream@DU?$char_traits@D@std@@@std@@QEAAXXZ@4HA
	DB	0b0H
xdata	ENDS
;	COMDAT xdata
xdata	SEGMENT
$tryMap$?_Osfx@?$basic_ostream@DU?$char_traits@D@std@@@std@@QEAAXXZ DB 02H
	DB	00H
	DB	00H
	DB	02H
	DD	imagerel $handlerMap$?_Osfx@?$basic_ostream@DU?$char_traits@D@std@@@std@@QEAAXXZ
xdata	ENDS
;	COMDAT xdata
xdata	SEGMENT
$stateUnwindMap$?_Osfx@?$basic_ostream@DU?$char_traits@D@std@@@std@@QEAAXXZ DB 04H
	DB	08H
	DB	010H
xdata	ENDS
;	COMDAT xdata
xdata	SEGMENT
$cppxdata$?_Osfx@?$basic_ostream@DU?$char_traits@D@std@@@std@@QEAAXXZ DB 078H
	DD	imagerel $stateUnwindMap$?_Osfx@?$basic_ostream@DU?$char_traits@D@std@@@std@@QEAAXXZ
	DD	imagerel $tryMap$?_Osfx@?$basic_ostream@DU?$char_traits@D@std@@@std@@QEAAXXZ
	DD	imagerel $ip2state$?_Osfx@?$basic_ostream@DU?$char_traits@D@std@@@std@@QEAAXXZ
xdata	ENDS
;	COMDAT xdata
xdata	SEGMENT
$unwind$?_Osfx@?$basic_ostream@DU?$char_traits@D@std@@@std@@QEAAXXZ DD 020619H
	DD	03002b206H
	DD	imagerel __CxxFrameHandler4
	DD	imagerel $cppxdata$?_Osfx@?$basic_ostream@DU?$char_traits@D@std@@@std@@QEAAXXZ
xdata	ENDS
;	COMDAT xdata
xdata	SEGMENT
$unwind$?printBitboard@@YAX_KDD@Z DD 0a1801H
	DD	0a6418H
	DD	095418H
	DD	083418H
	DD	0f0143218H
	DD	07010e012H
xdata	ENDS
;	COMDAT xdata
xdata	SEGMENT
$unwind$?getloc@ios_base@std@@QEBA?AVlocale@2@XZ DD 020601H
	DD	030023206H
xdata	ENDS
;	COMDAT xdata
xdata	SEGMENT
$unwind$?clear@ios_base@std@@QEAAXH_N@Z DD 032a01H
	DD	0c342aH
	DD	0c204H
xdata	ENDS
;	COMDAT xdata
xdata	SEGMENT
$unwind$??_Gfailure@ios_base@std@@UEAAPEAXI@Z DD 040a01H
	DD	06340aH
	DD	07006320aH
xdata	ENDS
;	COMDAT xdata
xdata	SEGMENT
$unwind$??0failure@ios_base@std@@QEAA@AEBV012@@Z DD 040a01H
	DD	06340aH
	DD	07006320aH
xdata	ENDS
;	COMDAT xdata
xdata	SEGMENT
$ip2state$??0failure@ios_base@std@@QEAA@PEBDAEBVerror_code@2@@Z DB 06H
	DB	0a8H
	DB	00H
	DB	'2'
	DB	02H
	DB	0a8H
	DB	00H
xdata	ENDS
;	COMDAT xdata
xdata	SEGMENT
$stateUnwindMap$??0failure@ios_base@std@@QEAA@PEBDAEBVerror_code@2@@Z DB 02H
	DB	0aH
	DD	imagerel ??1?$basic_string@DU?$char_traits@D@std@@V?$allocator@D@2@@std@@QEAA@XZ
	DB	080H
xdata	ENDS
;	COMDAT xdata
xdata	SEGMENT
$cppxdata$??0failure@ios_base@std@@QEAA@PEBDAEBVerror_code@2@@Z DB 028H
	DD	imagerel $stateUnwindMap$??0failure@ios_base@std@@QEAA@PEBDAEBVerror_code@2@@Z
	DD	imagerel $ip2state$??0failure@ios_base@std@@QEAA@PEBDAEBVerror_code@2@@Z
xdata	ENDS
;	COMDAT xdata
xdata	SEGMENT
$unwind$??0failure@ios_base@std@@QEAA@PEBDAEBVerror_code@2@@Z DD 062119H
	DD	076812H
	DD	015340dH
	DD	07006f20dH
	DD	imagerel __GSHandlerCheck_EH4
	DD	imagerel $cppxdata$??0failure@ios_base@std@@QEAA@PEBDAEBVerror_code@2@@Z
	DD	062H
xdata	ENDS
;	COMDAT xdata
xdata	SEGMENT
$ip2state$??$use_facet@V?$ctype@D@std@@@std@@YAAEBV?$ctype@D@0@AEBVlocale@0@@Z DB 08H
	DB	'e', 02H
	DB	02H
	DB	'~'
	DB	04H
	DB	'6'
	DB	00H
	DB	'0'
	DB	02H
xdata	ENDS
;	COMDAT xdata
xdata	SEGMENT
$stateUnwindMap$??$use_facet@V?$ctype@D@std@@@std@@YAAEBV?$ctype@D@0@AEBVlocale@0@@Z DB 04H
	DB	0aH
	DD	imagerel ??1_Lockit@std@@QEAA@XZ
	DB	0b0H
	DB	032H
	DD	imagerel ??1?$unique_ptr@V_Facet_base@std@@U?$default_delete@V_Facet_base@std@@@2@@std@@QEAA@XZ
	DB	0a0H
xdata	ENDS
;	COMDAT xdata
xdata	SEGMENT
$cppxdata$??$use_facet@V?$ctype@D@std@@@std@@YAAEBV?$ctype@D@0@AEBVlocale@0@@Z DB 028H
	DD	imagerel $stateUnwindMap$??$use_facet@V?$ctype@D@std@@@std@@YAAEBV?$ctype@D@0@AEBVlocale@0@@Z
	DD	imagerel $ip2state$??$use_facet@V?$ctype@D@std@@@std@@YAAEBV?$ctype@D@0@AEBVlocale@0@@Z
xdata	ENDS
;	COMDAT xdata
xdata	SEGMENT
$unwind$??$use_facet@V?$ctype@D@std@@@std@@YAAEBV?$ctype@D@0@AEBVlocale@0@@Z DD 060b11H
	DD	0e007320bH
	DD	060047005H
	DD	030025003H
	DD	imagerel __CxxFrameHandler4
	DD	imagerel $cppxdata$??$use_facet@V?$ctype@D@std@@@std@@YAAEBV?$ctype@D@0@AEBVlocale@0@@Z
xdata	ENDS
;	COMDAT xdata
xdata	SEGMENT
$unwind$??_G?$ctype@D@std@@MEAAPEAXI@Z DD 040a01H
	DD	06340aH
	DD	07006320aH
xdata	ENDS
;	COMDAT xdata
xdata	SEGMENT
$unwind$?do_narrow@?$ctype@D@std@@MEBAPEBDPEBD0DPEAD@Z DD 020601H
	DD	030023206H
xdata	ENDS
;	COMDAT xdata
xdata	SEGMENT
$unwind$?do_widen@?$ctype@D@std@@MEBAPEBDPEBD0PEAD@Z DD 020601H
	DD	030023206H
xdata	ENDS
;	COMDAT xdata
xdata	SEGMENT
$chain$1$?do_toupper@?$ctype@D@std@@MEBAPEBDPEADPEBD@Z DD 021H
	DD	imagerel $LN15
	DD	imagerel $LN15+21
	DD	imagerel $unwind$?do_toupper@?$ctype@D@std@@MEBAPEBDPEADPEBD@Z
xdata	ENDS
;	COMDAT xdata
xdata	SEGMENT
$chain$0$?do_toupper@?$ctype@D@std@@MEBAPEBDPEADPEBD@Z DD 020521H
	DD	066405H
	DD	imagerel $LN15
	DD	imagerel $LN15+21
	DD	imagerel $unwind$?do_toupper@?$ctype@D@std@@MEBAPEBDPEADPEBD@Z
xdata	ENDS
;	COMDAT xdata
xdata	SEGMENT
$unwind$?do_toupper@?$ctype@D@std@@MEBAPEBDPEADPEBD@Z DD 040a01H
	DD	07340aH
	DD	07006320aH
xdata	ENDS
;	COMDAT xdata
xdata	SEGMENT
$chain$1$?do_tolower@?$ctype@D@std@@MEBAPEBDPEADPEBD@Z DD 021H
	DD	imagerel $LN15
	DD	imagerel $LN15+21
	DD	imagerel $unwind$?do_tolower@?$ctype@D@std@@MEBAPEBDPEADPEBD@Z
xdata	ENDS
;	COMDAT xdata
xdata	SEGMENT
$chain$0$?do_tolower@?$ctype@D@std@@MEBAPEBDPEADPEBD@Z DD 020521H
	DD	066405H
	DD	imagerel $LN15
	DD	imagerel $LN15+21
	DD	imagerel $unwind$?do_tolower@?$ctype@D@std@@MEBAPEBDPEADPEBD@Z
xdata	ENDS
;	COMDAT xdata
xdata	SEGMENT
$unwind$?do_tolower@?$ctype@D@std@@MEBAPEBDPEADPEBD@Z DD 040a01H
	DD	07340aH
	DD	07006320aH
xdata	ENDS
;	COMDAT xdata
xdata	SEGMENT
$unwind$?_Tidy@?$ctype@D@std@@IEAAXXZ DD 020601H
	DD	030023206H
xdata	ENDS
;	COMDAT xdata
xdata	SEGMENT
$unwind$?_Init@?$ctype@D@std@@IEAAXAEBV_Locinfo@2@@Z DD 020601H
	DD	030027206H
xdata	ENDS
;	COMDAT xdata
xdata	SEGMENT
$unwind$??1?$ctype@D@std@@MEAA@XZ DD 020601H
	DD	030023206H
xdata	ENDS
;	COMDAT xdata
xdata	SEGMENT
$unwind$?dtor$0@?0??_Getcat@?$ctype@D@std@@SA_KPEAPEBVfacet@locale@2@PEBV42@@Z@4HA DD 020601H
	DD	050023206H
xdata	ENDS
;	COMDAT xdata
xdata	SEGMENT
$ip2state$?_Getcat@?$ctype@D@std@@SA_KPEAPEBVfacet@locale@2@PEBV42@@Z DB 08H
	DB	08eH
	DB	00H
	DB	09H, 02H
	DB	010H
	DB	086H
	DB	012H
	DB	091H, 02H
	DB	010H
xdata	ENDS
;	COMDAT xdata
xdata	SEGMENT
$stateUnwindMap$?_Getcat@?$ctype@D@std@@SA_KPEAPEBVfacet@locale@2@PEBV42@@Z DB 012H
	DB	0eH
	DD	imagerel ?dtor$0@?0??_Getcat@?$ctype@D@std@@SA_KPEAPEBVfacet@locale@2@PEBV42@@Z@4HA
	DB	02aH
	DD	imagerel ??1_Lockit@std@@QEAA@XZ
	DB	040H
	DB	036H
	DD	imagerel ?dtor$3@?0??_Getcat@?$ctype@D@std@@SA_KPEAPEBVfacet@locale@2@PEBV42@@Z@4HA
	DB	02eH
	DD	imagerel ?dtor$4@?0??_Getcat@?$ctype@D@std@@SA_KPEAPEBVfacet@locale@2@PEBV42@@Z@4HA
	DB	02eH
	DD	imagerel ?dtor$5@?0??_Getcat@?$ctype@D@std@@SA_KPEAPEBVfacet@locale@2@PEBV42@@Z@4HA
	DB	02eH
	DD	imagerel ?dtor$6@?0??_Getcat@?$ctype@D@std@@SA_KPEAPEBVfacet@locale@2@PEBV42@@Z@4HA
	DB	02eH
	DD	imagerel ?dtor$7@?0??_Getcat@?$ctype@D@std@@SA_KPEAPEBVfacet@locale@2@PEBV42@@Z@4HA
	DB	02eH
	DD	imagerel ?dtor$8@?0??_Getcat@?$ctype@D@std@@SA_KPEAPEBVfacet@locale@2@PEBV42@@Z@4HA
	DB	0adH
	DB	02H
	DD	imagerel __std_terminate
xdata	ENDS
;	COMDAT xdata
xdata	SEGMENT
$cppxdata$?_Getcat@?$ctype@D@std@@SA_KPEAPEBVfacet@locale@2@PEBV42@@Z DB 028H
	DD	imagerel $stateUnwindMap$?_Getcat@?$ctype@D@std@@SA_KPEAPEBVfacet@locale@2@PEBV42@@Z
	DD	imagerel $ip2state$?_Getcat@?$ctype@D@std@@SA_KPEAPEBVfacet@locale@2@PEBV42@@Z
xdata	ENDS
;	COMDAT xdata
xdata	SEGMENT
$unwind$?_Getcat@?$ctype@D@std@@SA_KPEAPEBVfacet@locale@2@PEBV42@@Z DD 0b2011H
	DD	01d7420H
	DD	01c6420H
	DD	01b3420H
	DD	0160120H
	DD	0e012f014H
	DD	05010H
	DD	imagerel __CxxFrameHandler4
	DD	imagerel $cppxdata$?_Getcat@?$ctype@D@std@@SA_KPEAPEBVfacet@locale@2@PEBV42@@Z
xdata	ENDS
;	COMDAT xdata
xdata	SEGMENT
$unwind$??0?$ctype@D@std@@QEAA@AEBV_Locinfo@1@_K@Z DD 020601H
	DD	030027206H
xdata	ENDS
;	COMDAT xdata
xdata	SEGMENT
$unwind$??_Gctype_base@std@@UEAAPEAXI@Z DD 020601H
	DD	030023206H
xdata	ENDS
;	COMDAT xdata
xdata	SEGMENT
$unwind$?_Getfacet@locale@std@@QEBAPEBVfacet@12@_K@Z DD 040a01H
	DD	06340aH
	DD	07006320aH
xdata	ENDS
;	COMDAT xdata
xdata	SEGMENT
$unwind$??1locale@std@@QEAA@XZ DD 010401H
	DD	04204H
xdata	ENDS
;	COMDAT xdata
xdata	SEGMENT
$unwind$??0locale@std@@QEAA@AEBV01@@Z DD 020601H
	DD	030023206H
xdata	ENDS
;	COMDAT xdata
xdata	SEGMENT
$unwind$??_Gfacet@locale@std@@MEAAPEAXI@Z DD 020601H
	DD	030023206H
xdata	ENDS
;	COMDAT voltbl
voltbl	SEGMENT
_volmd	DB	00H
voltbl	ENDS
;	COMDAT voltbl
voltbl	SEGMENT
_volmd	DB	00H
voltbl	ENDS
;	COMDAT xdata
xdata	SEGMENT
$unwind$?_Tidy@?$_Yarn@_W@std@@AEAAXXZ DD 020601H
	DD	030023206H
xdata	ENDS
;	COMDAT xdata
xdata	SEGMENT
$unwind$??1?$_Yarn@_W@std@@QEAA@XZ DD 020601H
	DD	030023206H
xdata	ENDS
;	COMDAT xdata
xdata	SEGMENT
$unwind$?_Tidy@?$_Yarn@D@std@@AEAAXXZ DD 020601H
	DD	030023206H
xdata	ENDS
;	COMDAT xdata
xdata	SEGMENT
$unwind$??1?$_Yarn@D@std@@QEAA@XZ DD 020601H
	DD	030023206H
xdata	ENDS
;	COMDAT xdata
xdata	SEGMENT
$unwind$?_Getcvt@_Locinfo@std@@QEBA?AU_Cvtvec@@XZ DD 020601H
	DD	030029206H
xdata	ENDS
;	COMDAT xdata
xdata	SEGMENT
$unwind$?_Getctype@_Locinfo@std@@QEBA?AU_Ctypevec@@XZ DD 020601H
	DD	030027206H
xdata	ENDS
;	COMDAT xdata
xdata	SEGMENT
$ip2state$??1_Locinfo@std@@QEAA@XZ DB 02H
	DB	01aH
	DB	00H
xdata	ENDS
;	COMDAT xdata
xdata	SEGMENT
$cppxdata$??1_Locinfo@std@@QEAA@XZ DB 060H
	DD	imagerel $ip2state$??1_Locinfo@std@@QEAA@XZ
xdata	ENDS
;	COMDAT xdata
xdata	SEGMENT
$unwind$??1_Locinfo@std@@QEAA@XZ DD 040a19H
	DD	06340aH
	DD	07006320aH
	DD	imagerel __CxxFrameHandler4
	DD	imagerel $cppxdata$??1_Locinfo@std@@QEAA@XZ
xdata	ENDS
;	COMDAT xdata
xdata	SEGMENT
$ip2state$??0_Locinfo@std@@QEAA@PEBD@Z DB 02H
	DB	0acH
	DB	0eH
xdata	ENDS
;	COMDAT xdata
xdata	SEGMENT
$stateUnwindMap$??0_Locinfo@std@@QEAA@PEBD@Z DB 0eH
	DB	0cH
	DD	imagerel ??1_Lockit@std@@QEAA@XZ
	DB	060H
	DB	036H
	DD	imagerel ?dtor$1@?0???0_Locinfo@std@@QEAA@PEBD@Z@4HA
	DB	02eH
	DD	imagerel ?dtor$2@?0???0_Locinfo@std@@QEAA@PEBD@Z@4HA
	DB	02eH
	DD	imagerel ?dtor$3@?0???0_Locinfo@std@@QEAA@PEBD@Z@4HA
	DB	02eH
	DD	imagerel ?dtor$4@?0???0_Locinfo@std@@QEAA@PEBD@Z@4HA
	DB	02eH
	DD	imagerel ?dtor$5@?0???0_Locinfo@std@@QEAA@PEBD@Z@4HA
	DB	02eH
	DD	imagerel ?dtor$6@?0???0_Locinfo@std@@QEAA@PEBD@Z@4HA
xdata	ENDS
;	COMDAT xdata
xdata	SEGMENT
$cppxdata$??0_Locinfo@std@@QEAA@PEBD@Z DB 028H
	DD	imagerel $stateUnwindMap$??0_Locinfo@std@@QEAA@PEBD@Z
	DD	imagerel $ip2state$??0_Locinfo@std@@QEAA@PEBD@Z
xdata	ENDS
;	COMDAT xdata
xdata	SEGMENT
$unwind$??0_Locinfo@std@@QEAA@PEBD@Z DD 040f11H
	DD	07340fH
	DD	0700b320fH
	DD	imagerel __CxxFrameHandler4
	DD	imagerel $cppxdata$??0_Locinfo@std@@QEAA@PEBD@Z
xdata	ENDS
;	COMDAT xdata
xdata	SEGMENT
$unwind$??_G_Facet_base@std@@UEAAPEAXI@Z DD 020601H
	DD	030023206H
xdata	ENDS
;	COMDAT xdata
xdata	SEGMENT
$unwind$?_Throw_bad_cast@std@@YAXXZ DD 010401H
	DD	08204H
xdata	ENDS
;	COMDAT xdata
xdata	SEGMENT
$unwind$??_Gbad_cast@std@@UEAAPEAXI@Z DD 040a01H
	DD	06340aH
	DD	07006320aH
xdata	ENDS
;	COMDAT xdata
xdata	SEGMENT
$unwind$??0bad_cast@std@@QEAA@AEBV01@@Z DD 020601H
	DD	030023206H
xdata	ENDS
;	COMDAT xdata
xdata	SEGMENT
$unwind$??_G_Iostream_error_category2@std@@UEAAPEAXI@Z DD 020601H
	DD	030023206H
xdata	ENDS
;	COMDAT xdata
xdata	SEGMENT
$unwind$?message@_Iostream_error_category2@std@@UEBA?AV?$basic_string@DU?$char_traits@D@std@@V?$allocator@D@2@@2@H@Z DD 067701H
	DD	083477H
	DD	09640aH
	DD	07006520aH
xdata	ENDS
;	COMDAT xdata
xdata	SEGMENT
$unwind$??_Gsystem_error@std@@UEAAPEAXI@Z DD 040a01H
	DD	06340aH
	DD	07006320aH
xdata	ENDS
;	COMDAT xdata
xdata	SEGMENT
$unwind$??0system_error@std@@QEAA@AEBV01@@Z DD 040a01H
	DD	06340aH
	DD	07006320aH
xdata	ENDS
;	COMDAT xdata
xdata	SEGMENT
$ip2state$??0system_error@std@@QEAA@Verror_code@1@PEBD@Z DB 06H
	DB	092H
	DB	00H
	DB	'6'
	DB	02H
	DB	0a8H
	DB	00H
xdata	ENDS
;	COMDAT xdata
xdata	SEGMENT
$stateUnwindMap$??0system_error@std@@QEAA@Verror_code@1@PEBD@Z DB 02H
	DB	0aH
	DD	imagerel ??1?$basic_string@DU?$char_traits@D@std@@V?$allocator@D@2@@std@@QEAA@XZ
	DB	080H
xdata	ENDS
;	COMDAT xdata
xdata	SEGMENT
$cppxdata$??0system_error@std@@QEAA@Verror_code@1@PEBD@Z DB 028H
	DD	imagerel $stateUnwindMap$??0system_error@std@@QEAA@Verror_code@1@PEBD@Z
	DD	imagerel $ip2state$??0system_error@std@@QEAA@Verror_code@1@PEBD@Z
xdata	ENDS
;	COMDAT xdata
xdata	SEGMENT
$unwind$??0system_error@std@@QEAA@Verror_code@1@PEBD@Z DD 041719H
	DD	07004d208H
	DD	030026003H
	DD	imagerel __GSHandlerCheck_EH4
	DD	imagerel $cppxdata$??0system_error@std@@QEAA@Verror_code@1@PEBD@Z
	DD	062H
xdata	ENDS
;	COMDAT xdata
xdata	SEGMENT
$unwind$??_G_System_error@std@@UEAAPEAXI@Z DD 040a01H
	DD	06340aH
	DD	07006320aH
xdata	ENDS
;	COMDAT xdata
xdata	SEGMENT
$unwind$??0_System_error@std@@QEAA@AEBV01@@Z DD 040a01H
	DD	06340aH
	DD	07006320aH
xdata	ENDS
;	COMDAT xdata
xdata	SEGMENT
$ip2state$??0_System_error@std@@IEAA@Verror_code@1@AEBV?$basic_string@DU?$char_traits@D@std@@V?$allocator@D@2@@1@@Z DB 0cH
	DB	'}', 02H
	DB	00H
	DB	094H
	DB	02H
	DB	'N'
	DB	04H
	DB	'8'
	DB	02H
	DB	0e5H, 03H
	DB	00H
	DB	'd'
	DB	02H
xdata	ENDS
;	COMDAT xdata
xdata	SEGMENT
$stateUnwindMap$??0_System_error@std@@IEAA@Verror_code@1@AEBV?$basic_string@DU?$char_traits@D@std@@V?$allocator@D@2@@1@@Z DB 04H
	DB	0cH
	DD	imagerel ??1?$basic_string@DU?$char_traits@D@std@@V?$allocator@D@2@@std@@QEAA@XZ
	DB	0a0H
	DB	032H
	DD	imagerel ??1?$basic_string@DU?$char_traits@D@std@@V?$allocator@D@2@@std@@QEAA@XZ
	DB	0c0H
xdata	ENDS
;	COMDAT xdata
xdata	SEGMENT
$cppxdata$??0_System_error@std@@IEAA@Verror_code@1@AEBV?$basic_string@DU?$char_traits@D@std@@V?$allocator@D@2@@1@@Z DB 028H
	DD	imagerel $stateUnwindMap$??0_System_error@std@@IEAA@Verror_code@1@AEBV?$basic_string@DU?$char_traits@D@std@@V?$allocator@D@2@@1@@Z
	DD	imagerel $ip2state$??0_System_error@std@@IEAA@Verror_code@1@AEBV?$basic_string@DU?$char_traits@D@std@@V?$allocator@D@2@@1@@Z
xdata	ENDS
;	COMDAT xdata
xdata	SEGMENT
$unwind$??0_System_error@std@@IEAA@Verror_code@1@AEBV?$basic_string@DU?$char_traits@D@std@@V?$allocator@D@2@@1@@Z DD 092519H
	DD	0160117H
	DD	0e009f00bH
	DD	07005c007H
	DD	030036004H
	DD	05002H
	DD	imagerel __GSHandlerCheck_EH4
	DD	imagerel $cppxdata$??0_System_error@std@@IEAA@Verror_code@1@AEBV?$basic_string@DU?$char_traits@D@std@@V?$allocator@D@2@@1@@Z
	DD	0a2H
xdata	ENDS
;	COMDAT xdata
xdata	SEGMENT
$ip2state$?_Makestr@_System_error@std@@CA?AV?$basic_string@DU?$char_traits@D@std@@V?$allocator@D@2@@2@Verror_code@2@V32@@Z DB 08H
	DB	08cH
	DB	02H
	DB	'0'
	DB	04H
	DB	'>'
	DB	02H
	DB	0deH
	DB	00H
xdata	ENDS
;	COMDAT xdata
xdata	SEGMENT
$stateUnwindMap$?_Makestr@_System_error@std@@CA?AV?$basic_string@DU?$char_traits@D@std@@V?$allocator@D@2@@2@Verror_code@2@V32@@Z DB 04H
	DB	0cH
	DD	imagerel ??1?$basic_string@DU?$char_traits@D@std@@V?$allocator@D@2@@std@@QEAA@XZ
	DB	070H
	DB	032H
	DD	imagerel ??1?$basic_string@DU?$char_traits@D@std@@V?$allocator@D@2@@std@@QEAA@XZ
	DB	080H
xdata	ENDS
;	COMDAT xdata
xdata	SEGMENT
$cppxdata$?_Makestr@_System_error@std@@CA?AV?$basic_string@DU?$char_traits@D@std@@V?$allocator@D@2@@2@Verror_code@2@V32@@Z DB 028H
	DD	imagerel $stateUnwindMap$?_Makestr@_System_error@std@@CA?AV?$basic_string@DU?$char_traits@D@std@@V?$allocator@D@2@@2@Verror_code@2@V32@@Z
	DD	imagerel $ip2state$?_Makestr@_System_error@std@@CA?AV?$basic_string@DU?$char_traits@D@std@@V?$allocator@D@2@@2@Verror_code@2@V32@@Z
xdata	ENDS
;	COMDAT xdata
xdata	SEGMENT
$unwind$?_Makestr@_System_error@std@@CA?AV?$basic_string@DU?$char_traits@D@std@@V?$allocator@D@2@@2@Verror_code@2@V32@@Z DD 061b19H
	DD	015340cH
	DD	07008d20cH
	DD	050066007H
	DD	imagerel __GSHandlerCheck_EH4
	DD	imagerel $cppxdata$?_Makestr@_System_error@std@@CA?AV?$basic_string@DU?$char_traits@D@std@@V?$allocator@D@2@@2@Verror_code@2@V32@@Z
	DD	062H
xdata	ENDS
;	COMDAT xdata
xdata	SEGMENT
$unwind$?message@error_code@std@@QEBA?AV?$basic_string@DU?$char_traits@D@std@@V?$allocator@D@2@@2@XZ DD 020601H
	DD	030025206H
xdata	ENDS
;	COMDAT xdata
xdata	SEGMENT
$unwind$?equivalent@error_category@std@@UEBA_NHAEBVerror_condition@2@@Z DD 020601H
	DD	030025206H
xdata	ENDS
;	COMDAT xdata
xdata	SEGMENT
$unwind$??_Gruntime_error@std@@UEAAPEAXI@Z DD 040a01H
	DD	06340aH
	DD	07006320aH
xdata	ENDS
;	COMDAT xdata
xdata	SEGMENT
$unwind$??0runtime_error@std@@QEAA@AEBV01@@Z DD 020601H
	DD	030023206H
xdata	ENDS
;	COMDAT xdata
xdata	SEGMENT
$unwind$??0runtime_error@std@@QEAA@AEBV?$basic_string@DU?$char_traits@D@std@@V?$allocator@D@2@@1@@Z DD 020601H
	DD	030025206H
xdata	ENDS
;	COMDAT xdata
xdata	SEGMENT
$unwind$?_Tidy_deallocate@?$basic_string@DU?$char_traits@D@std@@V?$allocator@D@2@@std@@AEAAXXZ DD 020601H
	DD	030025206H
xdata	ENDS
;	COMDAT xdata
xdata	SEGMENT
$chain$1$?insert@?$basic_string@DU?$char_traits@D@std@@V?$allocator@D@2@@std@@QEAAAEAV12@_K0D@Z DD 021H
	DD	imagerel $LN28
	DD	imagerel $LN28+53
	DD	imagerel $unwind$?insert@?$basic_string@DU?$char_traits@D@std@@V?$allocator@D@2@@std@@QEAAAEAV12@_K0D@Z
xdata	ENDS
;	COMDAT xdata
xdata	SEGMENT
$chain$0$?insert@?$basic_string@DU?$char_traits@D@std@@V?$allocator@D@2@@std@@QEAAAEAV12@_K0D@Z DD 020521H
	DD	083405H
	DD	imagerel $LN28
	DD	imagerel $LN28+53
	DD	imagerel $unwind$?insert@?$basic_string@DU?$char_traits@D@std@@V?$allocator@D@2@@std@@QEAAAEAV12@_K0D@Z
xdata	ENDS
;	COMDAT xdata
xdata	SEGMENT
$unwind$?insert@?$basic_string@DU?$char_traits@D@std@@V?$allocator@D@2@@std@@QEAAAEAV12@_K0D@Z DD 060f01H
	DD	0a640fH
	DD	09540fH
	DD	0700b520fH
xdata	ENDS
;	COMDAT xdata
xdata	SEGMENT
$chain$4$?append@?$basic_string@DU?$char_traits@D@std@@V?$allocator@D@2@@std@@QEAAAEAV12@_KD@Z DD 021H
	DD	imagerel $LN86
	DD	imagerel $LN86+118
	DD	imagerel $unwind$?append@?$basic_string@DU?$char_traits@D@std@@V?$allocator@D@2@@std@@QEAAAEAV12@_KD@Z
xdata	ENDS
;	COMDAT xdata
xdata	SEGMENT
$chain$3$?append@?$basic_string@DU?$char_traits@D@std@@V?$allocator@D@2@@std@@QEAAAEAV12@_KD@Z DD 040021H
	DD	0dc400H
	DD	0c5400H
	DD	imagerel $LN86
	DD	imagerel $LN86+118
	DD	imagerel $unwind$?append@?$basic_string@DU?$char_traits@D@std@@V?$allocator@D@2@@std@@QEAAAEAV12@_KD@Z
xdata	ENDS
;	COMDAT xdata
xdata	SEGMENT
$chain$2$?append@?$basic_string@DU?$char_traits@D@std@@V?$allocator@D@2@@std@@QEAAAEAV12@_KD@Z DD 021H
	DD	imagerel $LN86
	DD	imagerel $LN86+118
	DD	imagerel $unwind$?append@?$basic_string@DU?$char_traits@D@std@@V?$allocator@D@2@@std@@QEAAAEAV12@_KD@Z
xdata	ENDS
;	COMDAT xdata
xdata	SEGMENT
$chain$1$?append@?$basic_string@DU?$char_traits@D@std@@V?$allocator@D@2@@std@@QEAAAEAV12@_KD@Z DD 040a21H
	DD	0dc40aH
	DD	0c5405H
	DD	imagerel $LN86
	DD	imagerel $LN86+118
	DD	imagerel $unwind$?append@?$basic_string@DU?$char_traits@D@std@@V?$allocator@D@2@@std@@QEAAAEAV12@_KD@Z
xdata	ENDS
;	COMDAT xdata
xdata	SEGMENT
$unwind$?append@?$basic_string@DU?$char_traits@D@std@@V?$allocator@D@2@@std@@QEAAAEAV12@_KD@Z DD 081101H
	DD	0e3411H
	DD	0f00d5211H
	DD	0d009e00bH
	DD	060067007H
xdata	ENDS
;	COMDAT xdata
xdata	SEGMENT
$unwind$?append@?$basic_string@DU?$char_traits@D@std@@V?$allocator@D@2@@std@@QEAAAEAV12@QEBD@Z DD 040a01H
	DD	06340aH
	DD	07006320aH
xdata	ENDS
;	COMDAT xdata
xdata	SEGMENT
$chain$4$?append@?$basic_string@DU?$char_traits@D@std@@V?$allocator@D@2@@std@@QEAAAEAV12@QEBD_K@Z DD 021H
	DD	imagerel $LN86
	DD	imagerel $LN86+111
	DD	imagerel $unwind$?append@?$basic_string@DU?$char_traits@D@std@@V?$allocator@D@2@@std@@QEAAAEAV12@QEBD_K@Z
xdata	ENDS
;	COMDAT xdata
xdata	SEGMENT
$chain$3$?append@?$basic_string@DU?$char_traits@D@std@@V?$allocator@D@2@@std@@QEAAAEAV12@QEBD_K@Z DD 040021H
	DD	0dc400H
	DD	0c5400H
	DD	imagerel $LN86
	DD	imagerel $LN86+111
	DD	imagerel $unwind$?append@?$basic_string@DU?$char_traits@D@std@@V?$allocator@D@2@@std@@QEAAAEAV12@QEBD_K@Z
xdata	ENDS
;	COMDAT xdata
xdata	SEGMENT
$chain$2$?append@?$basic_string@DU?$char_traits@D@std@@V?$allocator@D@2@@std@@QEAAAEAV12@QEBD_K@Z DD 021H
	DD	imagerel $LN86
	DD	imagerel $LN86+111
	DD	imagerel $unwind$?append@?$basic_string@DU?$char_traits@D@std@@V?$allocator@D@2@@std@@QEAAAEAV12@QEBD_K@Z
xdata	ENDS
;	COMDAT xdata
xdata	SEGMENT
$chain$1$?append@?$basic_string@DU?$char_traits@D@std@@V?$allocator@D@2@@std@@QEAAAEAV12@QEBD_K@Z DD 040a21H
	DD	0dc40aH
	DD	0c5405H
	DD	imagerel $LN86
	DD	imagerel $LN86+111
	DD	imagerel $unwind$?append@?$basic_string@DU?$char_traits@D@std@@V?$allocator@D@2@@std@@QEAAAEAV12@QEBD_K@Z
xdata	ENDS
;	COMDAT xdata
xdata	SEGMENT
$unwind$?append@?$basic_string@DU?$char_traits@D@std@@V?$allocator@D@2@@std@@QEAAAEAV12@QEBD_K@Z DD 081101H
	DD	0e3411H
	DD	0f00d5211H
	DD	0d009e00bH
	DD	060067007H
xdata	ENDS
;	COMDAT xdata
xdata	SEGMENT
$unwind$?assign@?$basic_string@DU?$char_traits@D@std@@V?$allocator@D@2@@std@@QEAAAEAV12@$$QEAV12@@Z DD 040a01H
	DD	08340aH
	DD	07006520aH
xdata	ENDS
;	COMDAT xdata
xdata	SEGMENT
$unwind$??4?$basic_string@DU?$char_traits@D@std@@V?$allocator@D@2@@std@@QEAAAEAV01@$$QEAV01@@Z DD 040a01H
	DD	08340aH
	DD	07006520aH
xdata	ENDS
;	COMDAT xdata
xdata	SEGMENT
$unwind$?_Deallocate_for_capacity@?$basic_string@DU?$char_traits@D@std@@V?$allocator@D@2@@std@@CAXAEAV?$allocator@D@2@QEAD_K@Z DD 010401H
	DD	06204H
xdata	ENDS
;	COMDAT xdata
xdata	SEGMENT
$chain$1$??0?$basic_string@DU?$char_traits@D@std@@V?$allocator@D@2@@std@@QEAA@_KD@Z DD 021H
	DD	imagerel $LN48
	DD	imagerel $LN48+104
	DD	imagerel $unwind$??0?$basic_string@DU?$char_traits@D@std@@V?$allocator@D@2@@std@@QEAA@_KD@Z
xdata	ENDS
;	COMDAT xdata
xdata	SEGMENT
$chain$0$??0?$basic_string@DU?$char_traits@D@std@@V?$allocator@D@2@@std@@QEAA@_KD@Z DD 020521H
	DD	063405H
	DD	imagerel $LN48
	DD	imagerel $LN48+104
	DD	imagerel $unwind$??0?$basic_string@DU?$char_traits@D@std@@V?$allocator@D@2@@std@@QEAA@_KD@Z
xdata	ENDS
;	COMDAT xdata
xdata	SEGMENT
$unwind$??0?$basic_string@DU?$char_traits@D@std@@V?$allocator@D@2@@std@@QEAA@_KD@Z DD 081501H
	DD	097415H
	DD	086415H
	DD	075415H
	DD	0e0113215H
xdata	ENDS
;	COMDAT xdata
xdata	SEGMENT
$unwind$??0?$basic_string@DU?$char_traits@D@std@@V?$allocator@D@2@@std@@QEAA@QEBD@Z DD 040a01H
	DD	06340aH
	DD	07006320aH
xdata	ENDS
;	COMDAT xdata
xdata	SEGMENT
$unwind$??0?$basic_string@DU?$char_traits@D@std@@V?$allocator@D@2@@std@@QEAA@QEBD_K@Z DD 020601H
	DD	030023206H
xdata	ENDS
;	COMDAT xdata
xdata	SEGMENT
$unwind$??0?$basic_string@DU?$char_traits@D@std@@V?$allocator@D@2@@std@@QEAA@AEBV01@@Z DD 081501H
	DD	087415H
	DD	076415H
	DD	063415H
	DD	0e0113215H
xdata	ENDS
;	COMDAT xdata
xdata	SEGMENT
$unwind$?_Xran@?$_String_val@U?$_Simple_types@D@std@@@std@@SAXXZ DD 010401H
	DD	04204H
xdata	ENDS
;	COMDAT xdata
xdata	SEGMENT
$unwind$?_Check_offset@?$_String_val@U?$_Simple_types@D@std@@@std@@QEBAX_K@Z DD 010401H
	DD	04204H
xdata	ENDS
;	COMDAT xdata
xdata	SEGMENT
$unwind$?deallocate@?$allocator@D@std@@QEAAXQEAD_K@Z DD 010401H
	DD	06204H
xdata	ENDS
;	COMDAT xdata
xdata	SEGMENT
$unwind$?_Xlen_string@std@@YAXXZ DD 010401H
	DD	04204H
xdata	ENDS
;	COMDAT xdata
xdata	SEGMENT
$unwind$?_Adjust_manually_vector_aligned@std@@YAXAEAPEAXAEA_K@Z DD 010401H
	DD	06204H
xdata	ENDS
;	COMDAT xdata
xdata	SEGMENT
$unwind$?_Throw_bad_array_new_length@std@@YAXXZ DD 010401H
	DD	08204H
xdata	ENDS
;	COMDAT xdata
xdata	SEGMENT
$unwind$?move@?$_Char_traits@DH@std@@SAPEADQEADQEBD_K@Z DD 020601H
	DD	030023206H
xdata	ENDS
;	COMDAT xdata
xdata	SEGMENT
$unwind$?copy@?$_Char_traits@DH@std@@SAPEADQEADQEBD_K@Z DD 020601H
	DD	030023206H
xdata	ENDS
;	COMDAT xdata
xdata	SEGMENT
$unwind$??_Gbad_array_new_length@std@@UEAAPEAXI@Z DD 040a01H
	DD	06340aH
	DD	07006320aH
xdata	ENDS
;	COMDAT xdata
xdata	SEGMENT
$unwind$??0bad_array_new_length@std@@QEAA@AEBV01@@Z DD 020601H
	DD	030023206H
xdata	ENDS
;	COMDAT xdata
xdata	SEGMENT
$unwind$??_Gbad_alloc@std@@UEAAPEAXI@Z DD 040a01H
	DD	06340aH
	DD	07006320aH
xdata	ENDS
;	COMDAT xdata
xdata	SEGMENT
$unwind$??0bad_alloc@std@@QEAA@AEBV01@@Z DD 020601H
	DD	030023206H
xdata	ENDS
;	COMDAT xdata
xdata	SEGMENT
$unwind$??_Gexception@std@@UEAAPEAXI@Z DD 040a01H
	DD	06340aH
	DD	07006320aH
xdata	ENDS
;	COMDAT xdata
xdata	SEGMENT
$unwind$??0exception@std@@QEAA@AEBV01@@Z DD 020601H
	DD	030023206H
xdata	ENDS
;	COMDAT xdata
xdata	SEGMENT
$unwind$??0exception@std@@QEAA@QEBD@Z DD 020601H
	DD	030025206H
xdata	ENDS
;	COMDAT xdata
xdata	SEGMENT
$unwind$sprintf_s DD 051201H
	DD	0700e6212H
	DD	0500c600dH
	DD	0300bH
xdata	ENDS
;	COMDAT xdata
xdata	SEGMENT
$unwind$_vsprintf_s_l DD 081401H
	DD	0a6414H
	DD	095414H
	DD	083414H
	DD	070105214H
xdata	ENDS
;	COMDAT xdata
xdata	SEGMENT
$unwind$?fpclassify@@YAHO@Z DD 010401H
	DD	04204H
xdata	ENDS
;	COMDAT xdata
xdata	SEGMENT
$unwind$?fpclassify@@YAHN@Z DD 010401H
	DD	04204H
xdata	ENDS
; Function compile flags: /Ogtpy
;	COMDAT ??$_Maklocchr@D@std@@YADDPEADAEBU_Cvtvec@@@Z
_TEXT	SEGMENT
_Byte$ = 8
__formal$ = 16
__formal$ = 24
??$_Maklocchr@D@std@@YADDPEADAEBU_Cvtvec@@@Z PROC	; std::_Maklocchr<char>, COMDAT
; File C:\Program Files\Microsoft Visual Studio\2022\Community\VC\Tools\MSVC\14.44.35207\include\xlocale
; Line 502
	movzx	eax, cl
; Line 503
	ret	0
??$_Maklocchr@D@std@@YADDPEADAEBU_Cvtvec@@@Z ENDP	; std::_Maklocchr<char>
_TEXT	ENDS
; Function compile flags: /Ogtpy
;	COMDAT ??$_Maklocstr@D@std@@YAPEADPEBDPEADAEBU_Cvtvec@@@Z
_TEXT	SEGMENT
_Ptr$ = 48
__formal$ = 56
__formal$ = 64
??$_Maklocstr@D@std@@YAPEADPEBDPEADAEBU_Cvtvec@@@Z PROC	; std::_Maklocstr<char>, COMDAT
; File C:\Program Files\Microsoft Visual Studio\2022\Community\VC\Tools\MSVC\14.44.35207\include\xlocale
; Line 526
$LN17:
	mov	QWORD PTR [rsp+8], rbx
	mov	QWORD PTR [rsp+16], rsi
	push	rdi
	sub	rsp, 32					; 00000020H
	mov	rsi, rcx
; Line 528
	call	strlen
; Line 530
	mov	edx, 1
	lea	rdi, QWORD PTR [rax+1]
	mov	rcx, rdi
	call	calloc
	mov	rbx, rax
; Line 532
	test	rax, rax
	je	SHORT $LN16@Maklocstr
; Line 536
	test	rdi, rdi
	je	SHORT $LN4@Maklocstr
	mov	r8, rdi
	mov	rdx, rsi
	mov	rcx, rax
	call	memcpy
$LN4@Maklocstr:
; Line 541
	mov	rsi, QWORD PTR [rsp+56]
	mov	rax, rbx
	mov	rbx, QWORD PTR [rsp+48]
	add	rsp, 32					; 00000020H
	pop	rdi
	ret	0
$LN16@Maklocstr:
; Line 533
	call	?_Xbad_alloc@std@@YAXXZ			; std::_Xbad_alloc
	int	3
$LN14@Maklocstr:
??$_Maklocstr@D@std@@YAPEADPEBDPEADAEBU_Cvtvec@@@Z ENDP	; std::_Maklocstr<char>
_TEXT	ENDS
; Function compile flags: /Ogtpy
;	COMDAT ??1?$_Tidy_guard@V?$numpunct@D@std@@@std@@QEAA@XZ
_TEXT	SEGMENT
this$ = 48
??1?$_Tidy_guard@V?$numpunct@D@std@@@std@@QEAA@XZ PROC	; std::_Tidy_guard<std::numpunct<char> >::~_Tidy_guard<std::numpunct<char> >, COMDAT
; File C:\Program Files\Microsoft Visual Studio\2022\Community\VC\Tools\MSVC\14.44.35207\include\xmemory
; Line 86
$LN11:
	push	rbx
	sub	rsp, 32					; 00000020H
; Line 87
	mov	rbx, QWORD PTR [rcx]
	test	rbx, rbx
	je	SHORT $LN6@Tidy_guard
; File C:\Program Files\Microsoft Visual Studio\2022\Community\VC\Tools\MSVC\14.44.35207\include\xlocnum
; Line 202
	mov	rcx, QWORD PTR [rbx+16]
	call	free
; Line 203
	mov	rcx, QWORD PTR [rbx+32]
	call	free
; Line 204
	mov	rcx, QWORD PTR [rbx+40]
; File C:\Program Files\Microsoft Visual Studio\2022\Community\VC\Tools\MSVC\14.44.35207\include\xmemory
; Line 90
	add	rsp, 32					; 00000020H
	pop	rbx
; File C:\Program Files\Microsoft Visual Studio\2022\Community\VC\Tools\MSVC\14.44.35207\include\xlocnum
; Line 204
	jmp	free
$LN6@Tidy_guard:
; File C:\Program Files\Microsoft Visual Studio\2022\Community\VC\Tools\MSVC\14.44.35207\include\xmemory
; Line 90
	add	rsp, 32					; 00000020H
	pop	rbx
	ret	0
??1?$_Tidy_guard@V?$numpunct@D@std@@@std@@QEAA@XZ ENDP	; std::_Tidy_guard<std::numpunct<char> >::~_Tidy_guard<std::numpunct<char> >
_TEXT	ENDS
; Function compile flags: /Ogtpy
;	COMDAT ??$_Allocate_manually_vector_aligned@U_Default_allocate_traits@std@@@std@@YAPEAX_K@Z
_TEXT	SEGMENT
_Bytes$ = 64
??$_Allocate_manually_vector_aligned@U_Default_allocate_traits@std@@@std@@YAPEAX_K@Z PROC ; std::_Allocate_manually_vector_aligned<std::_Default_allocate_traits>, COMDAT
; File C:\Program Files\Microsoft Visual Studio\2022\Community\VC\Tools\MSVC\14.44.35207\include\xmemory
; Line 182
$LN11:
	sub	rsp, 56					; 00000038H
; Line 184
	lea	rax, QWORD PTR [rcx+39]
; Line 185
	cmp	rax, rcx
	jbe	SHORT $LN9@Allocate_m
; Line 136
	mov	rcx, rax
	call	??2@YAPEAX_K@Z				; operator new
	mov	rcx, rax
; Line 190
	test	rax, rax
	je	SHORT $LN10@Allocate_m
; Line 191
	add	rax, 39					; 00000027H
	and	rax, -32				; ffffffffffffffe0H
; Line 192
	mov	QWORD PTR [rax-8], rcx
; Line 198
	add	rsp, 56					; 00000038H
	ret	0
$LN9@Allocate_m:
; Line 186
	call	?_Throw_bad_array_new_length@std@@YAXXZ	; std::_Throw_bad_array_new_length
	int	3
$LN10@Allocate_m:
; Line 190
	xor	r9d, r9d
	mov	QWORD PTR [rsp+32], 0
	xor	r8d, r8d
	xor	edx, edx
	xor	ecx, ecx
	call	_invoke_watson
	int	3
$LN7@Allocate_m:
??$_Allocate_manually_vector_aligned@U_Default_allocate_traits@std@@@std@@YAPEAX_K@Z ENDP ; std::_Allocate_manually_vector_aligned<std::_Default_allocate_traits>
_TEXT	ENDS
; Function compile flags: /Ogtpy
;	COMDAT ??$_Get_size_of_n@$00@std@@YA_K_K@Z
_TEXT	SEGMENT
_Count$ = 8
??$_Get_size_of_n@$00@std@@YA_K_K@Z PROC		; std::_Get_size_of_n<1>, COMDAT
; File C:\Program Files\Microsoft Visual Studio\2022\Community\VC\Tools\MSVC\14.44.35207\include\xmemory
; Line 122
	mov	rax, rcx
; Line 123
	ret	0
??$_Get_size_of_n@$00@std@@YA_K_K@Z ENDP		; std::_Get_size_of_n<1>
_TEXT	ENDS
; Function compile flags: /Ogtpy
;	COMDAT ??$_Allocate@$0BA@U_Default_allocate_traits@std@@@std@@YAPEAX_K@Z
_TEXT	SEGMENT
_Bytes$ = 64
??$_Allocate@$0BA@U_Default_allocate_traits@std@@@std@@YAPEAX_K@Z PROC ; std::_Allocate<16,std::_Default_allocate_traits>, COMDAT
; File C:\Program Files\Microsoft Visual Studio\2022\Community\VC\Tools\MSVC\14.44.35207\include\xmemory
; Line 225
$LN18:
	sub	rsp, 56					; 00000038H
; Line 227
	test	rcx, rcx
	jne	SHORT $LN2@Allocate
; Line 228
	xor	eax, eax
; Line 258
	add	rsp, 56					; 00000038H
	ret	0
$LN2@Allocate:
; Line 251
	cmp	rcx, 4096				; 00001000H
	jb	SHORT $LN3@Allocate
; Line 184
	lea	rax, QWORD PTR [rcx+39]
; Line 185
	cmp	rax, rcx
	jbe	SHORT $LN16@Allocate
; Line 136
	mov	rcx, rax
	call	??2@YAPEAX_K@Z				; operator new
	mov	rcx, rax
; Line 190
	test	rax, rax
	je	SHORT $LN17@Allocate
; Line 191
	add	rax, 39					; 00000027H
	and	rax, -32				; ffffffffffffffe0H
; Line 192
	mov	QWORD PTR [rax-8], rcx
; Line 258
	add	rsp, 56					; 00000038H
	ret	0
$LN3@Allocate:
	add	rsp, 56					; 00000038H
; Line 136
	jmp	??2@YAPEAX_K@Z				; operator new
$LN16@Allocate:
; Line 186
	call	?_Throw_bad_array_new_length@std@@YAXXZ	; std::_Throw_bad_array_new_length
	int	3
$LN17@Allocate:
; Line 190
	xor	r9d, r9d
	mov	QWORD PTR [rsp+32], 0
	xor	r8d, r8d
	xor	edx, edx
	xor	ecx, ecx
	call	_invoke_watson
	int	3
$LN14@Allocate:
??$_Allocate@$0BA@U_Default_allocate_traits@std@@@std@@YAPEAX_K@Z ENDP ; std::_Allocate<16,std::_Default_allocate_traits>
_TEXT	ENDS
; Function compile flags: /Ogtpy
;	COMDAT ??$_Construct@$0A@D@?$basic_string@DU?$char_traits@D@std@@V?$allocator@D@2@@std@@AEAAXD_K@Z
_TEXT	SEGMENT
this$ = 48
_Arg$ = 56
_Count$ = 64
??$_Construct@$0A@D@?$basic_string@DU?$char_traits@D@std@@V?$allocator@D@2@@std@@AEAAXD_K@Z PROC ; std::basic_string<char,std::char_traits<char>,std::allocator<char> >::_Construct<0,char>, COMDAT
; File C:\Program Files\Microsoft Visual Studio\2022\Community\VC\Tools\MSVC\14.44.35207\include\xstring
; Line 871
$LN32:
	mov	QWORD PTR [rsp+16], rbp
	mov	QWORD PTR [rsp+24], rsi
	mov	QWORD PTR [rsp+32], rdi
	push	r14
	sub	rsp, 32					; 00000020H
; Line 881
	mov	rbp, 9223372036854775807		; 7fffffffffffffffH
	movsx	r14d, dl
	mov	rdi, r8
	mov	rsi, rcx
	cmp	r8, rbp
	ja	$LN30@Construct
; Line 889
	cmp	r8, 15
	ja	SHORT $LN3@Construct
; File C:\Program Files\Microsoft Visual Studio\2022\Community\VC\Tools\MSVC\14.44.35207\include\__msvc_string_view.hpp
; Line 493
	mov	edx, r14d
; File C:\Program Files\Microsoft Visual Studio\2022\Community\VC\Tools\MSVC\14.44.35207\include\xstring
; Line 890
	mov	QWORD PTR [rcx+16], r8
; Line 891
	mov	QWORD PTR [rcx+24], 15
; File C:\Program Files\Microsoft Visual Studio\2022\Community\VC\Tools\MSVC\14.44.35207\include\__msvc_string_view.hpp
; Line 493
	call	memset
; File C:\Program Files\Microsoft Visual Studio\2022\Community\VC\Tools\MSVC\14.44.35207\include\xstring
; Line 895
	mov	BYTE PTR [rdi+rsi], 0
; Line 908
	jmp	SHORT $LN1@Construct
$LN3@Construct:
; Line 2978
	mov	rax, rdi
	mov	QWORD PTR [rsp+48], rbx
	or	rax, 15
	cmp	rax, rbp
; Line 2979
	ja	SHORT $LN8@Construct
; Line 2987
	mov	ecx, 22
	mov	rbp, rax
	cmp	rax, rcx
	cmovb	rbp, rcx
$LN8@Construct:
; Line 825
	lea	rcx, QWORD PTR [rbp+1]
; File C:\Program Files\Microsoft Visual Studio\2022\Community\VC\Tools\MSVC\14.44.35207\include\xmemory
; Line 990
	call	??$_Allocate@$0BA@U_Default_allocate_traits@std@@@std@@YAPEAX_K@Z ; std::_Allocate<16,std::_Default_allocate_traits>
; File C:\Program Files\Microsoft Visual Studio\2022\Community\VC\Tools\MSVC\14.44.35207\include\__msvc_string_view.hpp
; Line 493
	mov	edx, r14d
; File C:\Program Files\Microsoft Visual Studio\2022\Community\VC\Tools\MSVC\14.44.35207\include\xstring
; Line 913
	mov	QWORD PTR [rsi], rax
; File C:\Program Files\Microsoft Visual Studio\2022\Community\VC\Tools\MSVC\14.44.35207\include\__msvc_string_view.hpp
; Line 493
	mov	r8, rdi
; File C:\Program Files\Microsoft Visual Studio\2022\Community\VC\Tools\MSVC\14.44.35207\include\xstring
; Line 915
	mov	QWORD PTR [rsi+16], rdi
; File C:\Program Files\Microsoft Visual Studio\2022\Community\VC\Tools\MSVC\14.44.35207\include\__msvc_string_view.hpp
; Line 493
	mov	rcx, rax
; File C:\Program Files\Microsoft Visual Studio\2022\Community\VC\Tools\MSVC\14.44.35207\include\xstring
; Line 916
	mov	QWORD PTR [rsi+24], rbp
; File C:\Program Files\Microsoft Visual Studio\2022\Community\VC\Tools\MSVC\14.44.35207\include\xmemory
; Line 990
	mov	rbx, rax
; File C:\Program Files\Microsoft Visual Studio\2022\Community\VC\Tools\MSVC\14.44.35207\include\__msvc_string_view.hpp
; Line 493
	call	memset
; File C:\Program Files\Microsoft Visual Studio\2022\Community\VC\Tools\MSVC\14.44.35207\include\xstring
; Line 919
	mov	BYTE PTR [rbx+rdi], 0
	mov	rbx, QWORD PTR [rsp+48]
$LN1@Construct:
; Line 929
	mov	rbp, QWORD PTR [rsp+56]
	mov	rsi, QWORD PTR [rsp+64]
	mov	rdi, QWORD PTR [rsp+72]
	add	rsp, 32					; 00000020H
	pop	r14
	ret	0
$LN30@Construct:
; Line 882
	call	?_Xlen_string@std@@YAXXZ		; std::_Xlen_string
	int	3
$LN28@Construct:
??$_Construct@$0A@D@?$basic_string@DU?$char_traits@D@std@@V?$allocator@D@2@@std@@AEAAXD_K@Z ENDP ; std::basic_string<char,std::char_traits<char>,std::allocator<char> >::_Construct<0,char>
_TEXT	ENDS
; Function compile flags: /Ogtpy
;	COMDAT ??$_Pocma@V?$allocator@D@std@@@std@@YAXAEAV?$allocator@D@0@0@Z
_TEXT	SEGMENT
_Left$ = 8
_Right$ = 16
??$_Pocma@V?$allocator@D@std@@@std@@YAXAEAV?$allocator@D@0@0@Z PROC ; std::_Pocma<std::allocator<char> >, COMDAT
; File C:\Program Files\Microsoft Visual Studio\2022\Community\VC\Tools\MSVC\14.44.35207\include\xmemory
; Line 1086
	ret	0
??$_Pocma@V?$allocator@D@std@@@std@@YAXAEAV?$allocator@D@0@0@Z ENDP ; std::_Pocma<std::allocator<char> >
_TEXT	ENDS
; Function compile flags: /Ogtpy
;	COMDAT ??$addressof@V?$basic_string@DU?$char_traits@D@std@@V?$allocator@D@2@@std@@@std@@YAPEAV?$basic_string@DU?$char_traits@D@std@@V?$allocator@D@2@@0@AEAV10@@Z
_TEXT	SEGMENT
_Val$ = 8
??$addressof@V?$basic_string@DU?$char_traits@D@std@@V?$allocator@D@2@@std@@@std@@YAPEAV?$basic_string@DU?$char_traits@D@std@@V?$allocator@D@2@@0@AEAV10@@Z PROC ; std::addressof<std::basic_string<char,std::char_traits<char>,std::allocator<char> > >, COMDAT
; File C:\Program Files\Microsoft Visual Studio\2022\Community\VC\Tools\MSVC\14.44.35207\include\type_traits
; Line 1525
	mov	rax, rcx
; Line 1526
	ret	0
??$addressof@V?$basic_string@DU?$char_traits@D@std@@V?$allocator@D@2@@std@@@std@@YAPEAV?$basic_string@DU?$char_traits@D@std@@V?$allocator@D@2@@0@AEAV10@@Z ENDP ; std::addressof<std::basic_string<char,std::char_traits<char>,std::allocator<char> > >
_TEXT	ENDS
; Function compile flags: /Ogtpy
;	COMDAT ??$_Reallocate_grow_by@V<lambda_e1befb086ad3257e3f042a63030725f7>@@_KD@?$basic_string@DU?$char_traits@D@std@@V?$allocator@D@2@@std@@AEAAAEAV01@_KV<lambda_e1befb086ad3257e3f042a63030725f7>@@_KD@Z
_TEXT	SEGMENT
this$ = 96
_Size_increase$ = 104
_Fn$ = 112
<_Args_0>$ = 120
<_Args_1>$ = 128
??$_Reallocate_grow_by@V<lambda_e1befb086ad3257e3f042a63030725f7>@@_KD@?$basic_string@DU?$char_traits@D@std@@V?$allocator@D@2@@std@@AEAAAEAV01@_KV<lambda_e1befb086ad3257e3f042a63030725f7>@@_KD@Z PROC ; std::basic_string<char,std::char_traits<char>,std::allocator<char> >::_Reallocate_grow_by<<lambda_e1befb086ad3257e3f042a63030725f7>,unsigned __int64,char>, COMDAT
; File C:\Program Files\Microsoft Visual Studio\2022\Community\VC\Tools\MSVC\14.44.35207\include\xstring
; Line 3024
$LN71:
	push	rbx
	push	rbp
	push	rdi
	push	r15
	sub	rsp, 56					; 00000038H
; Line 3028
	mov	r15, QWORD PTR [rcx+16]
; Line 3029
	mov	rbx, 9223372036854775807		; 7fffffffffffffffH
	mov	rax, rbx
	mov	rbp, r9
	sub	rax, r15
	mov	rdi, rcx
	cmp	rax, rdx
	jb	$LN69@Reallocate
; Line 3033
	mov	QWORD PTR [rsp+96], rsi
	mov	QWORD PTR [rsp+104], r12
	lea	r12, QWORD PTR [r15+rdx]
; Line 2978
	mov	rdx, r12
	mov	QWORD PTR [rsp+112], r13
	or	rdx, 15
	mov	QWORD PTR [rsp+48], r14
; Line 3034
	mov	r14, QWORD PTR [rcx+24]
; Line 2978
	cmp	rdx, rbx
; Line 2979
	ja	SHORT $LN9@Reallocate
; Line 2983
	mov	rcx, r14
	mov	rax, rbx
	shr	rcx, 1
	sub	rax, rcx
	cmp	r14, rax
	ja	SHORT $LN9@Reallocate
; Line 2987
	lea	rax, QWORD PTR [r14+rcx]
	mov	rbx, rdx
	cmp	rdx, rax
	cmovb	rbx, rax
$LN9@Reallocate:
; Line 825
	lea	rcx, QWORD PTR [rbx+1]
; File C:\Program Files\Microsoft Visual Studio\2022\Community\VC\Tools\MSVC\14.44.35207\include\xmemory
; Line 990
	call	??$_Allocate@$0BA@U_Default_allocate_traits@std@@@std@@YAPEAX_K@Z ; std::_Allocate<16,std::_Default_allocate_traits>
; File C:\Program Files\Microsoft Visual Studio\2022\Community\VC\Tools\MSVC\14.44.35207\include\xstring
; Line 3043
	movsx	r13d, BYTE PTR <_Args_1>$[rsp]
; File C:\Program Files\Microsoft Visual Studio\2022\Community\VC\Tools\MSVC\14.44.35207\include\xmemory
; Line 990
	mov	rsi, rax
; File C:\Program Files\Microsoft Visual Studio\2022\Community\VC\Tools\MSVC\14.44.35207\include\xstring
; Line 3041
	mov	QWORD PTR [rdi+16], r12
; Line 3044
	mov	r8, r15
	mov	QWORD PTR [rdi+24], rbx
	mov	rcx, rax
	lea	r12, QWORD PTR [rax+r15]
	cmp	r14, 15
	jbe	SHORT $LN3@Reallocate
; Line 3045
	mov	rbx, QWORD PTR [rdi]
; File C:\Program Files\Microsoft Visual Studio\2022\Community\VC\Tools\MSVC\14.44.35207\include\__msvc_string_view.hpp
; Line 121
	mov	rdx, rbx
	call	memcpy
; Line 493
	mov	r8, rbp
	mov	edx, r13d
	mov	rcx, r12
	call	memset
; File C:\Program Files\Microsoft Visual Studio\2022\Community\VC\Tools\MSVC\14.44.35207\include\xstring
; Line 852
	lea	rdx, QWORD PTR [r14+1]
; Line 1555
	mov	BYTE PTR [r12+rbp], 0
; File C:\Program Files\Microsoft Visual Studio\2022\Community\VC\Tools\MSVC\14.44.35207\include\xmemory
; Line 284
	cmp	rdx, 4096				; 00001000H
	jb	SHORT $LN44@Reallocate
; Line 205
	mov	rax, QWORD PTR [rbx-8]
	add	rdx, 39					; 00000027H
; Line 219
	sub	rbx, rax
	sub	rbx, 8
	cmp	rbx, 31
	ja	SHORT $LN43@Reallocate
; Line 220
	mov	rbx, rax
$LN44@Reallocate:
; Line 289
	mov	rcx, rbx
	call	??3@YAXPEAX_K@Z				; operator delete
; File C:\Program Files\Microsoft Visual Studio\2022\Community\VC\Tools\MSVC\14.44.35207\include\xstring
; Line 3049
	jmp	SHORT $LN4@Reallocate
$LN3@Reallocate:
; File C:\Program Files\Microsoft Visual Studio\2022\Community\VC\Tools\MSVC\14.44.35207\include\__msvc_string_view.hpp
; Line 121
	mov	rdx, rdi
	call	memcpy
; Line 493
	mov	r8, rbp
	mov	edx, r13d
	mov	rcx, r12
	call	memset
; File C:\Program Files\Microsoft Visual Studio\2022\Community\VC\Tools\MSVC\14.44.35207\include\xstring
; Line 1555
	mov	BYTE PTR [r12+rbp], 0
$LN4@Reallocate:
; Line 3055
	mov	QWORD PTR [rdi], rsi
	mov	rax, rdi
	mov	r13, QWORD PTR [rsp+112]
	mov	r12, QWORD PTR [rsp+104]
	mov	rsi, QWORD PTR [rsp+96]
	mov	r14, QWORD PTR [rsp+48]
; Line 3056
	add	rsp, 56					; 00000038H
	pop	r15
	pop	rdi
	pop	rbp
	pop	rbx
	ret	0
$LN43@Reallocate:
; File C:\Program Files\Microsoft Visual Studio\2022\Community\VC\Tools\MSVC\14.44.35207\include\xmemory
; Line 219
	xor	r9d, r9d
	mov	QWORD PTR [rsp+32], 0
	xor	r8d, r8d
	xor	edx, edx
	xor	ecx, ecx
	call	_invoke_watson
	int	3
$LN69@Reallocate:
; File C:\Program Files\Microsoft Visual Studio\2022\Community\VC\Tools\MSVC\14.44.35207\include\xstring
; Line 3030
	call	?_Xlen_string@std@@YAXXZ		; std::_Xlen_string
	int	3
$LN67@Reallocate:
??$_Reallocate_grow_by@V<lambda_e1befb086ad3257e3f042a63030725f7>@@_KD@?$basic_string@DU?$char_traits@D@std@@V?$allocator@D@2@@std@@AEAAAEAV01@_KV<lambda_e1befb086ad3257e3f042a63030725f7>@@_KD@Z ENDP ; std::basic_string<char,std::char_traits<char>,std::allocator<char> >::_Reallocate_grow_by<<lambda_e1befb086ad3257e3f042a63030725f7>,unsigned __int64,char>
_TEXT	ENDS
; Function compile flags: /Ogtpy
;	COMDAT ??R<lambda_e1befb086ad3257e3f042a63030725f7>@@QEBA@QEADQEBD_K2D@Z
_TEXT	SEGMENT
this$ = 48
_New_ptr$ = 56
_Old_ptr$ = 64
_Old_size$ = 72
_Count$ = 80
_Ch$ = 88
??R<lambda_e1befb086ad3257e3f042a63030725f7>@@QEBA@QEADQEBD_K2D@Z PROC ; <lambda_e1befb086ad3257e3f042a63030725f7>::operator(), COMDAT
; File C:\Program Files\Microsoft Visual Studio\2022\Community\VC\Tools\MSVC\14.44.35207\include\xstring
; Line 1556
$LN11:
	mov	QWORD PTR [rsp+8], rbx
	push	rdi
	sub	rsp, 32					; 00000020H
	mov	rax, r8
	mov	rbx, rdx
; File C:\Program Files\Microsoft Visual Studio\2022\Community\VC\Tools\MSVC\14.44.35207\include\__msvc_string_view.hpp
; Line 121
	mov	rdx, rax
	mov	rcx, rbx
	mov	r8, r9
; File C:\Program Files\Microsoft Visual Studio\2022\Community\VC\Tools\MSVC\14.44.35207\include\xstring
; Line 1556
	mov	rdi, r9
; File C:\Program Files\Microsoft Visual Studio\2022\Community\VC\Tools\MSVC\14.44.35207\include\__msvc_string_view.hpp
; Line 121
	call	memcpy
; Line 493
	movsx	edx, BYTE PTR _Ch$[rsp]
; File C:\Program Files\Microsoft Visual Studio\2022\Community\VC\Tools\MSVC\14.44.35207\include\xstring
; Line 1554
	add	rdi, rbx
; File C:\Program Files\Microsoft Visual Studio\2022\Community\VC\Tools\MSVC\14.44.35207\include\__msvc_string_view.hpp
; Line 493
	mov	rbx, QWORD PTR _Count$[rsp]
	mov	rcx, rdi
	mov	r8, rbx
	call	memset
; File C:\Program Files\Microsoft Visual Studio\2022\Community\VC\Tools\MSVC\14.44.35207\include\xstring
; Line 1555
	mov	BYTE PTR [rdi+rbx], 0
; Line 1556
	mov	rbx, QWORD PTR [rsp+48]
	add	rsp, 32					; 00000020H
	pop	rdi
	ret	0
??R<lambda_e1befb086ad3257e3f042a63030725f7>@@QEBA@QEADQEBD_K2D@Z ENDP ; <lambda_e1befb086ad3257e3f042a63030725f7>::operator()
_TEXT	ENDS
; Function compile flags: /Ogtpy
;	COMDAT ??$_Reallocate_grow_by@V<lambda_b986da8d428e4af07c64af60eec09b61>@@_K_KD@?$basic_string@DU?$char_traits@D@std@@V?$allocator@D@2@@std@@AEAAAEAV01@_KV<lambda_b986da8d428e4af07c64af60eec09b61>@@_K2D@Z
_TEXT	SEGMENT
this$ = 96
_Size_increase$ = 104
_Fn$ = 112
<_Args_0>$ = 120
<_Args_1>$ = 128
<_Args_2>$ = 136
??$_Reallocate_grow_by@V<lambda_b986da8d428e4af07c64af60eec09b61>@@_K_KD@?$basic_string@DU?$char_traits@D@std@@V?$allocator@D@2@@std@@AEAAAEAV01@_KV<lambda_b986da8d428e4af07c64af60eec09b61>@@_K2D@Z PROC ; std::basic_string<char,std::char_traits<char>,std::allocator<char> >::_Reallocate_grow_by<<lambda_b986da8d428e4af07c64af60eec09b61>,unsigned __int64,unsigned __int64,char>, COMDAT
; File C:\Program Files\Microsoft Visual Studio\2022\Community\VC\Tools\MSVC\14.44.35207\include\xstring
; Line 3024
$LN77:
	push	rbx
	push	rsi
	push	rdi
	push	r12
	sub	rsp, 56					; 00000038H
; Line 3028
	mov	rsi, QWORD PTR [rcx+16]
; Line 3029
	mov	rbx, 9223372036854775807		; 7fffffffffffffffH
	mov	rax, rbx
	mov	r12, r9
	sub	rax, rsi
	mov	rdi, rcx
	cmp	rax, rdx
	jb	$LN75@Reallocate
; Line 3033
	mov	QWORD PTR [rsp+96], rbp
	lea	rbp, QWORD PTR [rsi+rdx]
	mov	QWORD PTR [rsp+104], r13
	mov	QWORD PTR [rsp+112], r14
; Line 3034
	mov	r14, QWORD PTR [rcx+24]
; Line 2978
	mov	rcx, rbp
	or	rcx, 15
	mov	QWORD PTR [rsp+48], r15
	cmp	rcx, rbx
; Line 2979
	ja	SHORT $LN9@Reallocate
; Line 2983
	mov	rdx, r14
	mov	rax, rbx
	shr	rdx, 1
	sub	rax, rdx
	cmp	r14, rax
	ja	SHORT $LN9@Reallocate
; Line 2987
	lea	rax, QWORD PTR [r14+rdx]
	mov	rbx, rcx
	cmp	rcx, rax
	cmovb	rbx, rax
$LN9@Reallocate:
; Line 825
	lea	rcx, QWORD PTR [rbx+1]
; File C:\Program Files\Microsoft Visual Studio\2022\Community\VC\Tools\MSVC\14.44.35207\include\xmemory
; Line 990
	call	??$_Allocate@$0BA@U_Default_allocate_traits@std@@@std@@YAPEAX_K@Z ; std::_Allocate<16,std::_Default_allocate_traits>
; File C:\Program Files\Microsoft Visual Studio\2022\Community\VC\Tools\MSVC\14.44.35207\include\xstring
; Line 3043
	mov	r13, QWORD PTR <_Args_1>$[rsp]
	sub	rsi, r12
	mov	QWORD PTR [rdi+16], rbp
; File C:\Program Files\Microsoft Visual Studio\2022\Community\VC\Tools\MSVC\14.44.35207\include\xmemory
; Line 990
	mov	r15, rax
; File C:\Program Files\Microsoft Visual Studio\2022\Community\VC\Tools\MSVC\14.44.35207\include\xstring
; Line 3042
	mov	QWORD PTR [rdi+24], rbx
; Line 3044
	mov	r8, r12
	movsx	ebx, BYTE PTR <_Args_2>$[rsp]
	lea	rbp, QWORD PTR [rax+r12]
	mov	rcx, rax
	cmp	r14, 15
	jbe	SHORT $LN3@Reallocate
; Line 3045
	mov	rbx, QWORD PTR [rdi]
; File C:\Program Files\Microsoft Visual Studio\2022\Community\VC\Tools\MSVC\14.44.35207\include\__msvc_string_view.hpp
; Line 121
	mov	rdx, rbx
	call	memcpy
; Line 493
	movsx	edx, BYTE PTR <_Args_2>$[rsp]
	mov	r8, r13
	mov	rcx, rbp
	call	memset
; Line 121
	mov	rcx, r13
; File C:\Program Files\Microsoft Visual Studio\2022\Community\VC\Tools\MSVC\14.44.35207\include\xstring
; Line 1804
	lea	rdx, QWORD PTR [rbx+r12]
; File C:\Program Files\Microsoft Visual Studio\2022\Community\VC\Tools\MSVC\14.44.35207\include\__msvc_string_view.hpp
; Line 121
	add	rcx, rbp
	lea	r8, QWORD PTR [rsi+1]
	call	memcpy
; File C:\Program Files\Microsoft Visual Studio\2022\Community\VC\Tools\MSVC\14.44.35207\include\xstring
; Line 852
	lea	rdx, QWORD PTR [r14+1]
; File C:\Program Files\Microsoft Visual Studio\2022\Community\VC\Tools\MSVC\14.44.35207\include\xmemory
; Line 284
	cmp	rdx, 4096				; 00001000H
	jb	SHORT $LN47@Reallocate
; Line 205
	mov	rax, QWORD PTR [rbx-8]
	add	rdx, 39					; 00000027H
; Line 219
	sub	rbx, rax
	sub	rbx, 8
	cmp	rbx, 31
	ja	SHORT $LN46@Reallocate
; Line 220
	mov	rbx, rax
$LN47@Reallocate:
; Line 289
	mov	rcx, rbx
	call	??3@YAXPEAX_K@Z				; operator delete
; File C:\Program Files\Microsoft Visual Studio\2022\Community\VC\Tools\MSVC\14.44.35207\include\xstring
; Line 3049
	jmp	SHORT $LN4@Reallocate
$LN3@Reallocate:
; File C:\Program Files\Microsoft Visual Studio\2022\Community\VC\Tools\MSVC\14.44.35207\include\__msvc_string_view.hpp
; Line 121
	mov	rdx, rdi
	call	memcpy
; Line 493
	mov	r8, r13
	mov	edx, ebx
	mov	rcx, rbp
	call	memset
; Line 121
	mov	rcx, r13
; File C:\Program Files\Microsoft Visual Studio\2022\Community\VC\Tools\MSVC\14.44.35207\include\xstring
; Line 1804
	lea	rdx, QWORD PTR [r12+rdi]
; File C:\Program Files\Microsoft Visual Studio\2022\Community\VC\Tools\MSVC\14.44.35207\include\__msvc_string_view.hpp
; Line 121
	add	rcx, rbp
	lea	r8, QWORD PTR [rsi+1]
	call	memcpy
$LN4@Reallocate:
; File C:\Program Files\Microsoft Visual Studio\2022\Community\VC\Tools\MSVC\14.44.35207\include\xstring
; Line 3055
	mov	QWORD PTR [rdi], r15
	mov	rax, rdi
	mov	r14, QWORD PTR [rsp+112]
	mov	r13, QWORD PTR [rsp+104]
	mov	rbp, QWORD PTR [rsp+96]
	mov	r15, QWORD PTR [rsp+48]
; Line 3056
	add	rsp, 56					; 00000038H
	pop	r12
	pop	rdi
	pop	rsi
	pop	rbx
	ret	0
$LN46@Reallocate:
; File C:\Program Files\Microsoft Visual Studio\2022\Community\VC\Tools\MSVC\14.44.35207\include\xmemory
; Line 219
	xor	r9d, r9d
	mov	QWORD PTR [rsp+32], 0
	xor	r8d, r8d
	xor	edx, edx
	xor	ecx, ecx
	call	_invoke_watson
	int	3
$LN75@Reallocate:
; File C:\Program Files\Microsoft Visual Studio\2022\Community\VC\Tools\MSVC\14.44.35207\include\xstring
; Line 3030
	call	?_Xlen_string@std@@YAXXZ		; std::_Xlen_string
	int	3
$LN73@Reallocate:
??$_Reallocate_grow_by@V<lambda_b986da8d428e4af07c64af60eec09b61>@@_K_KD@?$basic_string@DU?$char_traits@D@std@@V?$allocator@D@2@@std@@AEAAAEAV01@_KV<lambda_b986da8d428e4af07c64af60eec09b61>@@_K2D@Z ENDP ; std::basic_string<char,std::char_traits<char>,std::allocator<char> >::_Reallocate_grow_by<<lambda_b986da8d428e4af07c64af60eec09b61>,unsigned __int64,unsigned __int64,char>
_TEXT	ENDS
; Function compile flags: /Ogtpy
;	COMDAT ??R<lambda_b986da8d428e4af07c64af60eec09b61>@@QEBA@QEADQEBD_K22D@Z
_TEXT	SEGMENT
this$ = 48
_New_ptr$ = 56
_Old_ptr$ = 64
_Old_size$ = 72
_Off$ = 80
_Count$ = 88
_Ch$ = 96
??R<lambda_b986da8d428e4af07c64af60eec09b61>@@QEBA@QEADQEBD_K22D@Z PROC ; <lambda_b986da8d428e4af07c64af60eec09b61>::operator(), COMDAT
; File C:\Program Files\Microsoft Visual Studio\2022\Community\VC\Tools\MSVC\14.44.35207\include\xstring
; Line 1805
$LN14:
	mov	QWORD PTR [rsp+8], rbx
	mov	QWORD PTR [rsp+16], rbp
	mov	QWORD PTR [rsp+24], rsi
	mov	QWORD PTR [rsp+32], rdi
	push	r14
	sub	rsp, 32					; 00000020H
; File C:\Program Files\Microsoft Visual Studio\2022\Community\VC\Tools\MSVC\14.44.35207\include\__msvc_string_view.hpp
; Line 121
	mov	rsi, QWORD PTR _Off$[rsp]
; File C:\Program Files\Microsoft Visual Studio\2022\Community\VC\Tools\MSVC\14.44.35207\include\xstring
; Line 1805
	mov	r14, r8
	mov	rbx, rdx
; File C:\Program Files\Microsoft Visual Studio\2022\Community\VC\Tools\MSVC\14.44.35207\include\__msvc_string_view.hpp
; Line 121
	mov	r8, rsi
	mov	rdx, r14
	mov	rcx, rbx
; File C:\Program Files\Microsoft Visual Studio\2022\Community\VC\Tools\MSVC\14.44.35207\include\xstring
; Line 1805
	mov	rbp, r9
; File C:\Program Files\Microsoft Visual Studio\2022\Community\VC\Tools\MSVC\14.44.35207\include\__msvc_string_view.hpp
; Line 121
	call	memcpy
; Line 493
	movsx	edx, BYTE PTR _Ch$[rsp]
; File C:\Program Files\Microsoft Visual Studio\2022\Community\VC\Tools\MSVC\14.44.35207\include\xstring
; Line 1803
	lea	rdi, QWORD PTR [rbx+rsi]
; File C:\Program Files\Microsoft Visual Studio\2022\Community\VC\Tools\MSVC\14.44.35207\include\__msvc_string_view.hpp
; Line 493
	mov	rbx, QWORD PTR _Count$[rsp]
	mov	rcx, rdi
	mov	r8, rbx
	call	memset
; File C:\Program Files\Microsoft Visual Studio\2022\Community\VC\Tools\MSVC\14.44.35207\include\xstring
; Line 1804
	sub	rbp, rsi
	lea	rdx, QWORD PTR [r14+rsi]
	lea	rcx, QWORD PTR [rdi+rbx]
	lea	r8, QWORD PTR [rbp+1]
; Line 1805
	mov	rbx, QWORD PTR [rsp+48]
	mov	rbp, QWORD PTR [rsp+56]
	mov	rsi, QWORD PTR [rsp+64]
	mov	rdi, QWORD PTR [rsp+72]
	add	rsp, 32					; 00000020H
	pop	r14
; File C:\Program Files\Microsoft Visual Studio\2022\Community\VC\Tools\MSVC\14.44.35207\include\__msvc_string_view.hpp
; Line 121
	jmp	memcpy
??R<lambda_b986da8d428e4af07c64af60eec09b61>@@QEBA@QEADQEBD_K22D@Z ENDP ; <lambda_b986da8d428e4af07c64af60eec09b61>::operator()
_TEXT	ENDS
; Function compile flags: /Ogtpy
;	COMDAT ??$_Deallocate@$0BA@@std@@YAXPEAX_K@Z
_TEXT	SEGMENT
_Ptr$ = 64
_Bytes$ = 72
??$_Deallocate@$0BA@@std@@YAXPEAX_K@Z PROC		; std::_Deallocate<16>, COMDAT
; File C:\Program Files\Microsoft Visual Studio\2022\Community\VC\Tools\MSVC\14.44.35207\include\xmemory
; Line 261
$LN13:
	sub	rsp, 56					; 00000038H
; Line 284
	cmp	rdx, 4096				; 00001000H
	jb	SHORT $LN8@Deallocate
; Line 205
	mov	rax, QWORD PTR [rcx-8]
	add	rdx, 39					; 00000027H
; Line 219
	sub	rcx, rax
	sub	rcx, 8
	cmp	rcx, 31
	ja	SHORT $LN7@Deallocate
; Line 220
	mov	rcx, rax
$LN8@Deallocate:
; Line 291
	add	rsp, 56					; 00000038H
; Line 289
	jmp	??3@YAXPEAX_K@Z				; operator delete
$LN7@Deallocate:
; Line 219
	xor	r9d, r9d
	mov	QWORD PTR [rsp+32], 0
	xor	r8d, r8d
	xor	edx, edx
	xor	ecx, ecx
	call	_invoke_watson
	int	3
$LN10@Deallocate:
??$_Deallocate@$0BA@@std@@YAXPEAX_K@Z ENDP		; std::_Deallocate<16>
_TEXT	ENDS
; Function compile flags: /Ogtpy
;	COMDAT ??$_Max_limit@_J@std@@YA_JXZ
_TEXT	SEGMENT
??$_Max_limit@_J@std@@YA_JXZ PROC			; std::_Max_limit<__int64>, COMDAT
; File C:\Program Files\Microsoft Visual Studio\2022\Community\VC\Tools\MSVC\14.44.35207\include\utility
; Line 867
	mov	rax, 9223372036854775807		; 7fffffffffffffffH
; Line 871
	ret	0
??$_Max_limit@_J@std@@YA_JXZ ENDP			; std::_Max_limit<__int64>
_TEXT	ENDS
; Function compile flags: /Ogtpy
;	COMDAT ??$max@_K@std@@YAAEB_KAEB_K0@Z
_TEXT	SEGMENT
_Left$ = 8
_Right$ = 16
??$max@_K@std@@YAAEB_KAEB_K0@Z PROC			; std::max<unsigned __int64>, COMDAT
; File C:\Program Files\Microsoft Visual Studio\2022\Community\VC\Tools\MSVC\14.44.35207\include\utility
; Line 77
	mov	rax, QWORD PTR [rdx]
	cmp	QWORD PTR [rcx], rax
	cmovb	rcx, rdx
	mov	rax, rcx
; Line 78
	ret	0
??$max@_K@std@@YAAEB_KAEB_K0@Z ENDP			; std::max<unsigned __int64>
_TEXT	ENDS
; Function compile flags: /Ogtpy
;	COMDAT ??$_Destroy_in_place@PEAD@std@@YAXAEAPEAD@Z
_TEXT	SEGMENT
_Obj$ = 8
??$_Destroy_in_place@PEAD@std@@YAXAEAPEAD@Z PROC	; std::_Destroy_in_place<char *>, COMDAT
